(dp0
Vstock
p1
I1662
sVsecondly
p2
I427
sVtodays
p3
I1087
sVlimited
p4
I1309
sVsaver
p5
I3656
sVsaves
p6
I838
sVcolleges
p7
I1823
sVyellow
p8
I2825
sVfour
p9
I1069
sVrapid
p10
I2816
sVwoods
p11
I1976
sVsleep
p12
I1062
sVhanging
p13
I964
sVconsists
p14
I3071
sVsaved
p15
I994
sVconsider
p16
I836
sVrelationships
p17
I941
sVlooking
p18
I272
sVspellcheck
p19
I3288
sVbuddy
p20
I2648
sVelectricity
p21
I983
sVenchance
p22
I3655
sVchildern
p23
I3282
sVbike
p24
I995
sVvoted
p25
I3471
sVunder
p26
I1158
sVteaching
p27
I975
sVsorry
p28
I2052
sVworth
p29
I885
sVedictded
p30
I3854
sVacount
p31
I2492
sVupdated
p32
I1048
sVrisk
p33
I803
sVrise
p34
I2732
sVdifferently
p35
I3075
sVcoordinations
p36
I3470
sVevery
p37
I191
sVupdates
p38
I1254
sVmessy
p39
I1636
sVaffect
p40
I344
sVbringing
p41
I1866
sVvast
p42
I1922
sVpsycologist
p43
I3284
sVtickets
p44
I1246
sVschool
p45
I106
sVbestfriend
p46
I2734
sVskills
p47
I289
sVsupports
p48
I2803
sVcompanies
p49
I1020
sVsolution
p50
I2053
sVred
p51
I2230
sVemployees
p52
I2160
sVglued
p53
I1262
sVreliable
p54
I1121
sVclothes
p55
I1179
sVenjoy
p56
I268
sVforce
p57
I2650
sVthrought
p58
I1953
sVtired
p59
I1200
sVphones
p60
I762
sVexcersice
p61
I3169
sVrequest
p62
I2235
sVtalks
p63
I1513
sVsecond
p64
I291
sVstreet
p65
I1328
sVmanner
p66
I2224
sVfriendships
p67
I1592
sVmaney
p68
I3322
sVpasswords
p69
I3797
sVmachines
p70
I896
sVtheory
p71
I3924
sVeven
p72
I83
sVeveryones
p73
I1893
sVhide
p74
I2242
sVhate
p75
I2088
sV+
p76
I2580
sVcooking
p77
I2508
sVrevolves
p78
I3170
sVfingers
p79
I760
sVreasoning
p80
I2317
sVinaproprite
p81
I3658
sVlights
p82
I1807
sVabove
p83
I1346
sVdr.
p84
I1113
sVnew
p85
I126
sVtips
p86
I1719
sVincreasing
p87
I1320
sVever
p88
I218
sVdisney
p89
I3173
sVtold
p90
I635
sVmessanger
p91
I2651
sVspecialist
p92
I2826
sVextremly
p93
I1624
sVbenifiting
p94
I2089
sVintrest
p95
I3073
sVwhose
p96
I3072
sVnever
p97
I195
sVfatter
p98
I3766
sVhere
p99
I461
sVhundreds
p100
I911
sVsocialize
p101
I804
sVmet
p102
I1114
sVprotection
p103
I2159
sVchina
p104
I3287
sVactive
p105
I514
sVlern
p106
I3686
sVkids
p107
I108
sVdaughter
p108
I1552
sVlazier
p109
I3610
sVitems
p110
I1143
sVstudy
p111
I389
sVchanged
p112
I791
sVjail
p113
I3099
sVreports
p114
I915
sVcontroversy
p115
I2827
sVitunes
p116
I3474
sVcredit
p117
I1398
sVjogging
p118
I3857
sVstressed
p119
I1779
sVmilitary
p120
I2108
sVpack
p121
I3591
sVchanges
p122
I1357
sVpromoted
p123
I3833
sVserch
p124
I2054
sVyork
p125
I3858
sVfantastic
p126
I1452
sVwheather
p127
I2363
sVartical
p128
I3174
sVgeography
p129
I3337
sVexplained
p130
I2281
sVschooling
p131
I2194
sVhighly
p132
I1625
sVbrought
p133
I820
sVninety
p134
I3660
sVwars
p135
I2390
sVathlete
p136
I3439
sVcostly
p137
I3592
sVactions
p138
I2765
sVtotal
p139
I1780
sVvertual
p140
I2830
sVcriminals
p141
I1575
sVspoke
p142
I2110
sVwould
p143
I55
sVarmy
p144
I1576
sVbrowse
p145
I2111
sVhospital
p146
I1358
sVachieve
p147
I3061
sVnegative
p148
I282
sVnoting
p149
I3860
sVmusic
p150
I388
sVtherefore
p151
I558
sVsurvive
p152
I1453
sVtype
p153
I164
sVuntil
p154
I794
sVseparated
p155
I3701
sVbecouse
p156
I3476
sVposting
p157
I2055
sVrelax
p158
I775
sVsuccessful
p159
I1978
sVbrings
p160
I987
sVexpose
p161
I3662
sVcordnation
p162
I3225
sVyahoo
p163
I1534
sVhurt
p164
I577
sVwarn
p165
I2391
sVphone
p166
I273
sVwarm
p167
I2056
sVadult
p168
I1149
sVexcellent
p169
I1839
sVcured
p170
I3477
sVhole
p171
I1979
sVhold
p172
I785
sVcompanys
p173
I2450
sVforgein
p174
I3030
sVmust
p175
I479
sVme
p176
I134
sVsocity
p177
I2347
sVte
p178
I2543
sVjoin
p179
I1190
sVroom
p180
I532
sVpursue
p181
I2831
sVhomepage
p182
I2318
sVwork
p183
I128
sVentertained
p184
I1519
sVmovies
p185
I656
sVera
p186
I2957
sVinstall
p187
I2451
sVim
p188
I926
sVmy
p189
I40
sVexample
p190
I143
sVaddictive
p191
I1520
sVexcuses
p192
I3804
sVwana
p193
I3291
sVgive
p194
I179
sVcalories
p195
I1193
sVhousehold
p196
I1422
sVorganized
p197
I1031
sVinvolve
p198
I1454
sVfoods
p199
I1720
sVwant
p200
I100
sVappointment
p201
I3380
sVkeep
p202
I156
sVcites
p203
I2958
sVadvancing
p204
I1507
sVend
p205
I435
sVconvienience
p206
I2891
sVturn
p207
I574
sVprovide
p208
I465
sVinteracts
p209
I3187
sVtravel
p210
I469
sVsong
p211
I1128
sVdamage
p212
I1132
sVmachine
p213
I1201
sVhow
p214
I86
sVamazing
p215
I511
sVcures
p216
I3478
sVhop
p217
I2510
sVanswer
p218
I493
sVbeach
p219
I1491
sVcharging
p220
I3865
sVpizza
p221
I2582
sVgaming
p222
I984
sVuntill
p223
I2653
sVoceans
p224
I3283
sVbeauty
p225
I1275
sVmess
p226
I1124
sVtyped
p227
I916
sVafter
p228
I325
sVlab
p229
I2348
sVconnects
p230
I3292
sVbefor
p231
I2736
sVwrong
p232
I442
sVjumping
p233
I3866
sVlay
p234
I2016
sVmarriage
p235
I3400
sVpresident
p236
I1923
sVlaw
p237
I1781
sVlap
p238
I2959
sVtypes
p239
I747
sVtyper
p240
I3293
sVinactivity
p241
I3667
sVpurchase
p242
I1644
sVthird
p243
I533
sVsurvay
p244
I3479
sVautomaticly
p245
I3668
sVappreciate
p246
I2349
sVchildhood
p247
I1674
sVmaintain
p248
I1924
sVgreen
p249
I2162
sVenter
p250
I1359
sVfan
p251
I3480
sVin-touch
p252
I3867
sVorder
p253
I588
sVwind
p254
I2112
sVemotion
p255
I2873
sVmabey
p256
I2282
sVoffice
p257
I1040
sVover
p258
I137
sVvary
p259
I2113
sVsatisfied
p260
I2960
sVschedual
p261
I3689
sVdown-sides
p262
I3568
sVbenefited
p263
I2511
sVkeyboard
p264
I810
sVtalkative
p265
I2737
sVsuceed
p266
I2133
sVexchange
p267
I3143
sVbefore
p268
I285
sVstoped
p269
I2387
sVfit
p270
I631
sVpersonal
p271
I580
sVfix
p272
I1202
sVdiffrent
p273
I1133
sV,
p274
I4
sVinterfere
p275
I3634
sVwriting
p276
I302
sVbetter
p277
I174
sVspoken
p278
I3351
sVencounter
p279
I2733
sVpersonas
p280
I3669
sVweeks
p281
I1088
sVeasier
p282
I230
sVsplit
p283
I3324
sVthen
p284
I113
sVthem
p285
I53
sVaffected
p286
I1380
sVdiseases
p287
I1734
sVprevented
p288
I2243
sVenrich
p289
I2833
sVworkout
p290
I2311
sVsafe
p291
I584
sVschoold
p292
I2834
sVbreak
p293
I897
sVband
p294
I2961
sVcouples
p295
I3211
sVgiraffe
p296
I2962
sVeffects
p297
I224
sVthey
p298
I23
sVschools
p299
I524
sVone
p300
I75
sVthes
p301
I3481
sVther
p302
I1079
sVbank
p303
I1553
sVbread
p304
I2963
sVgrammar
p305
I2057
sVoxygen
p306
I2163
sVregularly
p307
I3155
sVpotatoes
p308
I3868
sVarrested
p309
I3670
sVgrows
p310
I2398
sVweekends
p311
I2060
sVfaraway
p312
I328
sVya
p313
I3943
sVreasonable
p314
I2584
sVeach
p315
I254
sVaddicted
p316
I323
sVrealtives
p317
I2283
sVwent
p318
I386
sVkeyboards
p319
I3737
sVside
p320
I394
sVmean
p321
I446
sVsigning
p322
I3176
sVindependent
p323
I2977
sVcloths
p324
I3177
sVcrimes
p325
I2164
sVhusband
p326
I2176
sVupload
p327
I2955
sVvote
p328
I3352
sVtaught
p329
I1344
sVforgot
p330
I952
sVclassmates
p331
I3671
sVmessage
p332
I519
sVgon
p333
I1840
sVnetwork
p334
I1554
sVdriving
p335
I814
sVgod
p336
I2244
sVcameras
p337
I3482
sVhooked
p338
I1492
sVmonitor
p339
I1396
sVstrangers
p340
I1333
sVre
p341
I2114
sVencourage
p342
I1102
sVrare
p343
I2278
sVenable
p344
I1874
sVreader
p345
I2658
sVmedicine
p346
I2964
sVgot
p347
I253
sVware
p348
I3663
sVsize
p349
I2366
sVforth
p350
I1782
sVfoundation
p351
I3297
sVturning
p352
I1721
sVwritten
p353
I1573
sVhang
p354
I695
sVlittle
p355
I318
sVfree
p356
I459
sVstandard
p357
I3484
sVcorrects
p358
I3298
sVelsewhere
p359
I3299
sVenhance
p360
I2649
sVsheet
p361
I3300
sVwanted
p362
I417
sVheat
p363
I2751
sVenormous
p364
I2545
sVate
p365
I2512
sVafect
p366
I3485
sVcreated
p367
I970
sVeveything
p368
I3673
sVstarts
p369
I1399
sVmessages
p370
I825
sVdays
p371
I294
sVpriorities
p372
I2738
sVups
p373
I1718
sVcreates
p374
I2585
sVbears
p375
I2384
sVshipped
p376
I1980
sVwaterfall
p377
I3691
sVoppose
p378
I3486
sVisn
p379
I2197
sVunknown
p380
I2502
sVuses
p381
I476
sVonto
p382
I675
sVhire
p383
I2371
sVspeeds
p384
I2835
sVpurpose
p385
I1587
sValready
p386
I708
sVfeatures
p387
I1645
sVreconnected
p388
I3487
sVgrade
p389
I534
sVattractions
p390
I3771
sVwast
p391
I1981
sVhearing
p392
I2090
sVrestrict
p393
I2453
sVfantasy
p394
I3178
sVdownside
p395
I3675
sVanother
p396
I148
sVelectronic
p397
I1108
sVresearched
p398
I2740
sVspecially
p399
I2507
sVoline
p400
I3820
sVolds
p401
I2837
sVbasketball
p402
I1070
sVservice
p403
I1748
sVattach
p404
I3873
sVtop
p405
I1094
sVgirls
p406
I1925
sVbulb
p407
I3830
sVneeded
p408
I375
sVton
p409
I1841
sVtoo
p410
I129
sVworlds
p411
I1835
sVcontrys
p412
I2965
sVpercentage
p413
I2091
sVlegs
p414
I2839
sVdogs
p415
I2351
sVdamaging
p416
I1382
sVlisten
p417
I623
sVhangout
p418
I1735
sVasset
p419
I3861
sVhows
p420
I2706
sVtool
p421
I611
sVserve
p422
I1842
sVtook
p423
I698
sVfaimly
p424
I3488
sVwastes
p425
I2018
sVyouve
p426
I3754
sVsomewhat
p427
I2661
sVwasted
p428
I1383
sVpositively
p429
I2115
sVdistance
p430
I717
sVperfectly
p431
I3623
sVtarget
p432
I2966
sVshowed
p433
I879
sVhike
p434
I1626
sVdatabase
p435
I3595
sVtree
p436
I1423
sVlikely
p437
I655
sVebay
p438
I2166
sVproject
p439
I316
sVmatter
p440
I562
sVclasses
p441
I758
sVsilly
p442
I2326
sVspeaking
p443
I1817
sVhistorical
p444
I2586
sVjoy
p445
I2811
sVfeeling
p446
I1424
sVevey
p447
I2515
sVuseage
p448
I3535
sVlbs
p449
I3180
sVfailing
p450
I1783
sVsees
p451
I3076
sVexploring
p452
I2255
sVran
p453
I1310
sVuploading
p454
I3889
sVmodern
p455
I718
sVmind
p456
I470
sVmine
p457
I1577
sVspent
p458
I453
sVtalking
p459
I204
sVinfront
p460
I1174
sVobssesed
p461
I3579
sVseen
p462
I414
sVseem
p463
I869
sVmins
p464
I2392
sVseek
p465
I2058
sVtells
p466
I887
sVcontents
p467
I3490
sVforced
p468
I2587
sVconvenient
p469
I1493
sV\u201d
p470
I1962
sV-
p471
I771
sVsnow
p472
I1956
sVrealy
p473
I1894
sVamny
p474
I3491
sVcausing
p475
I893
sVabsorbed
p476
I3304
sVchess
p477
I2393
sVdoors
p478
I1425
sVrides
p479
I2245
sVhook
p480
I3674
sVblue
p481
I3855
sVreaserch
p482
I2017
sVexactly
p483
I1714
sVwrists
p484
I3677
sVthough
p485
I405
sVdistracts
p486
I2588
sV@money
p487
I456
sVobject
p488
I2514
sVbilding
p489
I3181
sVexercised
p490
I3493
sVpoker
p491
I3102
sVregular
p492
I1455
sVarguing
p493
I2411
sVaddict
p494
I2116
sVletter
p495
I365
sVexercises
p496
I2228
sVeye-site
p497
I3305
sVcontain
p498
I3062
sVcellular
p499
I3609
sVattitude
p500
I3391
sVwebcam
p501
I636
sVpeers
p502
I1957
sVdon
p503
I638
sVinterfear
p504
I3489
sVemailing
p505
I1486
sVmedical
p506
I1345
sVcamp
p507
I1479
sVm
p508
I3678
sVdog
p509
I1227
sVnormaly
p510
I2919
sVcares
p511
I2609
sVdefinitely
p512
I1171
sVtech
p513
I1277
sVdos
p514
I2662
sVentertaining
p515
I1263
sVmailing
p516
I2059
sVcame
p517
I619
sVsaying
p518
I518
sVselected
p519
I3679
sVbomb
p520
I2843
sVinspire
p521
I2247
sVconclution
p522
I3141
sVinsects
p523
I3306
sVmeetings
p524
I2117
sVrandom
p525
I2248
sVmeal
p526
I2136
sVbenificial
p527
I2118
sVending
p528
I3680
sVpops
p529
I2741
sVcolors
p530
I2742
sVradio
p531
I2454
sVstepping
p532
I2394
sVparticipate
p533
I3307
sVearth
p534
I960
sVenjoyed
p535
I2019
sVlessons
p536
I1535
sVbusy
p537
I597
sVclicked
p538
I3722
sVmeny
p539
I2844
sVtypewriters
p540
I3308
sVment
p541
I2845
sVcousins
p542
I1239
sVexplain
p543
I851
sVwasteful
p544
I3498
sVresident
p545
I3641
sVtheme
p546
I3437
sVrich
p547
I3310
sVlibary
p548
I3077
sVfolks
p549
I3681
sVbeacause
p550
I3182
sVrice
p551
I3311
sVpersonality
p552
I2969
sVwearing
p553
I3078
sVdo
p554
I27
sVdesigning
p555
I2280
sVwatch
p556
I348
sVleisure
p557
I3499
sVforemost
p558
I2288
sVpocket
p559
I3312
sVcomunication
p560
I1426
sVamazon
p561
I2743
sVobducted
p562
I3682
sVabsolutley
p563
I3695
sVsupplies
p564
I3172
sVreport
p565
I521
sVdisadvantage
p566
I2980
sVbeleive
p567
I1285
sVnet
p568
I2119
sVunfortunately
p569
I2468
sVdelete
p570
I3008
sVchild
p571
I341
sVcontributes
p572
I3313
sVcountries
p573
I460
sVtextbooks
p574
I1240
sVfields
p575
I3079
sVexcel
p576
I1906
sVinportant
p577
I3082
sVmethod
p578
I2001
sVtwice
p579
I1465
sVbad
p580
I122
sVstead
p581
I3500
sVexersize
p582
I888
sVrelease
p583
I2846
sVruins
p584
I2093
sVcomitt
p585
I3625
sVsecretary
p586
I2383
sVrespond
p587
I2289
sVmandatory
p588
I3314
sVdisaster
p589
I1749
sVfascinating
p590
I2339
sVhabit
p591
I1667
sVhelpul
p592
I2832
sVgraduate
p593
I3841
sVtesting
p594
I2663
sVrecieve
p595
I1414
sVchecks
p596
I2589
sVdepends
p597
I1700
sVdecided
p598
I1347
sVresult
p599
I761
sVfail
p600
I1373
sVmiserable
p601
I3504
sVone-hundred
p602
I3505
sVbest
p603
I311
sVsubject
p604
I706
sVsaid
p605
I258
sVinappropriate
p606
I1456
sVlots
p607
I485
sVaway
p608
I125
sVwikipedia
p609
I2290
sVfacebooks
p610
I2797
sVrushing
p611
I3326
sVgrandmother
p612
I1843
sVstamps
p613
I2847
sVscore
p614
I2291
sVfinger
p615
I1736
sVpets
p616
I2199
sVhopefully
p617
I1096
sVseach
p618
I3684
sVsorts
p619
I1401
sVdiscovery
p620
I2744
sVlazy
p621
I452
sVmen
p622
I1686
sVterms
p623
I2971
sVwa
p624
I2352
sVnature
p625
I161
sVwo
p626
I466
sVinapropriot
p627
I3383
sVweak
p628
I2094
sVhowever
p629
I429
sVboss
p630
I1466
sVreflexes
p631
I1439
sVwear
p632
I1668
sVextent
p633
I2292
sVcousin
p634
I781
sVpicking
p635
I2395
sVdebt
p636
I3315
sVimprove
p637
I515
sVadapting
p638
I3829
sVreceived
p639
I2591
sVprotect
p640
I1845
sVaccident
p641
I2517
sVreported
p642
I3286
sVcountry
p643
I300
sVill
p644
I3507
sVreaders
p645
I799
sVadventures
p646
I3317
sVagainst
p647
I1089
sVparticipating
p648
I3879
sVplayers
p649
I1737
sVgames
p650
I119
sVplanned
p651
I3462
sVfaces
p652
I3880
sVargue
p653
I1244
sVasked
p654
I787
sVcon
p655
I2972
sVsuggest
p656
I1670
sVeyesight
p657
I1627
sVtough
p658
I2353
sVagreat
p659
I3318
sVcharacter
p660
I2668
sVcompuer
p661
I2950
sVgathering
p662
I3729
sVtons
p663
I1041
sVviruses
p664
I1097
sVpath
p665
I3856
sVwider
p666
I3509
sVloaded
p667
I2061
sVtrust
p668
I1264
sVspeak
p669
I1015
sVconference
p670
I3881
sVbathroom
p671
I3882
sVco-workers
p672
I2173
sVengines
p673
I1042
sVbasis
p674
I2062
sVfro
p675
I3319
sVthree
p676
I362
sVbeen
p677
I211
sVquickly
p678
I616
sVconfident
p679
I3883
sVmuch
p680
I73
sVdetrimental
p681
I2396
sVinterest
p682
I1508
sVbasic
p683
I1646
sVentetainment
p684
I3290
sVdozens
p685
I2592
sVpro
p686
I3203
sVboard
p687
I1436
sVwebsite
p688
I314
sVobese
p689
I454
sVlife
p690
I94
sVfamilies
p691
I321
sVinnocent
p692
I2850
sVrelaxing
p693
I1555
sVdrugs
p694
I1669
sVprison
p695
I3328
sVwritting
p696
I1611
sVlocations
p697
I1615
sVpowerpoints
p698
I3338
sVlift
p699
I2848
sVpersonally
p700
I811
sVcatch
p701
I607
sVworked
p702
I2518
sVchill
p703
I3321
sVdefinetly
p704
I1360
sVharms
p705
I2973
sVwinding
p706
I3730
sVair
p707
I483
sVaim
p708
I801
sVnear
p709
I1050
sVneat
p710
I1220
sVteachers
p711
I443
sVstopping
p712
I3185
sVaid
p713
I1628
sVexcersise
p714
I1103
sVbalance
p715
I1255
sVreunion
p716
I3323
sVleaves
p717
I1355
sVmistake
p718
I1435
sVseven
p719
I2397
sVcons
p720
I1557
sVencyclopedias
p721
I1886
sVplayed
p722
I985
sVis
p723
I17
sVit
p724
I24
sVfamely
p725
I3320
sVexpenses
p726
I3186
sVplayer
p727
I1134
sVcant
p728
I563
sVexperts
p729
I433
sVin
p730
I20
sV\u2019
p731
I440
sVignoring
p732
I3659
sVmouse
p733
I657
sVif
p734
I38
sVgrown
p735
I1927
sVdamaged
p736
I2849
sVlacking
p737
I2187
sVperform
p738
I2974
sVthings
p739
I70
sVmake
p740
I105
sVairport
p741
I2424
sVentertennent
p742
I2975
sVlinked
p743
I3266
sVbeside
p744
I3887
sVfatal
p745
I3142
sVcomplex
p746
I2745
sVpatient
p747
I3135
sVdamages
p748
I3052
sVchatroom
p749
I3690
sVinnappropriate
p750
I3888
sVplates
p751
I3510
sVseveral
p752
I1361
sVshowing
p753
I1569
sVadvertising
p754
I2976
sVwheel
p755
I2594
sVfairly
p756
I2519
sVpick
p757
I753
sV@month
p758
I153
sVrain
p759
I1895
sVhand
p760
I207
sVeffectively
p761
I2714
sVeye-sight
p762
I3325
sVafraid
p763
I3267
sVexcersising
p764
I1278
sVi.
p765
I3692
sVpositives
p766
I2095
sVguardian
p767
I3096
sVprotected
p768
I3727
sVopportunity
p769
I1115
sVthoughts
p770
I1648
sVkid
p771
I467
sVpositve
p772
I3693
sVkept
p773
I1629
sVadictive
p774
I2747
sVthy
p775
I3179
sVprograms
p776
I430
sVvulgar
p777
I3819
sVyoure
p778
I1402
sVcontack
p779
I2978
sVsuffering
p780
I2328
sVocean
p781
I2455
sVepisode
p782
I2842
sVcontact
p783
I419
sVgreatest
p784
I1026
sVmother
p785
I699
sVclaims
p786
I3694
sVthe
p787
I6
sVyours
p788
I1722
sVtha
p789
I2354
sVleft
p790
I1021
sVopinions
p791
I1071
sVtraditions
p792
I2979
sVjust
p793
I64
sVdecreasing
p794
I3108
sVathletic
p795
I2595
sVphoto
p796
I2596
sVlaptop
p797
I594
sVanti-social
p798
I2021
sVswearing
p799
I3859
sV@caps
p800
I15
sVaside
p801
I2667
sVassigned
p802
I1403
sVgrades
p803
I437
sVgrader
p804
I3188
sVthanks
p805
I779
sVhuman
p806
I639
sVfacts
p807
I520
sVyes
p808
I415
sVyet
p809
I697
sVprevious
p810
I3327
sVnote
p811
I2534
sVshoud
p812
I2598
sVunique
p813
I2264
sVease
p814
I1867
sVhad
p815
I177
sVadvancement
p816
I1286
sVcountrys
p817
I1959
sVshout
p818
I3512
sVspread
p819
I1080
sVlong-lost
p820
I3083
sVteenager
p821
I1362
sVeasy
p822
I270
sVtechnological
p823
I1063
sVels
p824
I3890
sVsave
p825
I395
sVadress
p826
I2399
sVhumanity
p827
I3189
sVhav
p828
I2120
sVgave
p829
I1064
sVgraders
p830
I2956
sVenviornment
p831
I3084
sVhim/her
p832
I3817
sVadvances
p833
I444
sVprofessional
p834
I2607
sVpossible
p835
I624
sVpossibly
p836
I1072
sVboxes
p837
I3513
sVbackground
p838
I2400
sVdestroy
p839
I2200
sVfeelings
p840
I1954
sVadvanced
p841
I709
sVapart
p842
I961
sVdesire
p843
I2521
sVtexts
p844
I3229
sVunfortunatly
p845
I2599
sVunnecessary
p846
I3696
sVxbox
p847
I2749
sVspecific
p848
I1159
sVremind
p849
I2851
sVsteps
p850
I2121
sVzombies
p851
I3086
sVnight
p852
I560
sVhung
p853
I3190
sVsecurity
p854
I2355
sVbutterfly
p855
I3355
sVbeneficial
p856
I500
sVright
p857
I241
sVold
p858
I279
sVdeal
p859
I1051
sVpeople
p860
I12
sVdead
p861
I1509
sVborn
p862
I2022
sVprinter
p863
I2877
sVhassle
p864
I2356
sVparagraphs
p865
I2025
sVdear
p866
I110
sVpain
p867
I1818
sVadvertise
p868
I3191
sVtheyre
p869
I2981
sVfor
p870
I26
sVgrading
p871
I2202
sVear
p872
I3067
sVopposite
p873
I1872
sVloads
p874
I2296
sV/
p875
I2023
sVcreative
p876
I2293
sVeverything
p877
I266
sVasking
p878
I1081
sVoffices
p879
I3893
sVcompletly
p880
I1868
sVchristmas
p881
I3894
sVbooking
p882
I2750
sVhabbits
p883
I3087
sVneatly
p884
I1703
sVtour
p885
I3743
sVburn
p886
I1297
sVkickball
p887
I2983
sVfullest
p888
I2859
sVtecnollogy
p889
I3732
sVposses
p890
I3582
sVlosing
p891
I860
sVsorce
p892
I2169
sVpost
p893
I823
sVsuper
p894
I1649
sVplug
p895
I2249
sVaccountants
p896
I3895
sVnetbook
p897
I2539
sVattacks
p898
I2456
sVtheirs
p899
I1785
sVdollars
p900
I1612
sVmonths
p901
I1287
sVrelitive
p902
I3948
sVo
p903
I1982
sVlikley
p904
I2449
sVdinner
p905
I832
sVplus
p906
I672
sVimportantly
p907
I734
sVsuggestions
p908
I3386
sVautomatically
p909
I3088
sVmatch
p910
I2379
sVcontains
p911
I3566
sVwhats
p912
I677
sVlied
p913
I2669
sVod
p914
I3219
sVwasting
p915
I704
sVpays
p916
I3516
sVobessity
p917
I3330
sVcarpal
p918
I2984
sVbound
p919
I3517
sVson
p920
I986
sVdown
p921
I263
sVthankful
p922
I2853
sVbeings
p923
I2854
sVadventure
p924
I2482
sVbalanced
p925
I2985
sVreducing
p926
I2856
sVallways
p927
I2357
sVmethods
p928
I3419
sVwan
p929
I1437
sVrely
p930
I858
sVbeleve
p931
I3357
sVamazingly
p932
I3698
sVsupport
p933
I509
sVtennis
p934
I1221
sVpossitive
p935
I1248
sVsunlight
p936
I3194
sVfight
p937
I1288
sVstuck
p938
I1265
sVnow-a-days
p939
I2024
sVeditor
p940
I757
sVway
p941
I87
sVresulted
p942
I2523
sVcall
p943
I408
sVwat
p944
I1631
sVwas
p945
I117
sVwar
p946
I1384
sVhappy
p947
I632
sVhead
p948
I912
sVform
p949
I812
sVoffer
p950
I667
sVmagnificent
p951
I2074
sVbecoming
p952
I568
sVconverse
p953
I2986
sVfore
p954
I3090
sVplaning
p955
I3802
sVpurchasing
p956
I2385
sVuncle
p957
I1311
sVblindness
p958
I2063
sVtrue
p959
I527
sVabsent
p960
I2600
sValternitive
p961
I3899
sVbuilds
p962
I3699
sVprevents
p963
I2203
sVinside
p964
I490
sVislands
p965
I3697
sVattached
p966
I1905
sVcontry
p967
I2906
sVdevices
p968
I1009
sVtell
p969
I307
sVresson
p970
I2752
sVeconomic
p971
I3700
sVcancers
p972
I2987
sVemotional
p973
I3518
sS'<unk>'
p974
I1
sVbreathe
p975
I3862
sVgather
p976
I1897
sVproved
p977
I3333
sVicon
p978
I2763
sVclassic
p979
I3702
sVupset
p980
I2193
sVstatistic
p981
I2201
sVadvancements
p982
I2096
sVproven
p983
I880
sVhungry
p984
I2469
sV''
p985
I31
sVsometime
p986
I1415
sVexist
p987
I2294
sVfashioned
p988
I3091
sVsimulations
p989
I1739
sVawhile
p990
I3092
sVannoying
p991
I3195
sVtrip
p992
I680
sVexcercising
p993
I1269
sVbord
p994
I3515
sVdying
p995
I2601
sVno
p996
I150
sVna
p997
I1065
sVfar-away
p998
I2204
sVwhen
p999
I61
sVanyday
p1000
I3550
sVreality
p1001
I1043
sVinterested
p1002
I2026
sVrole
p1003
I1167
sVholding
p1004
I2988
sVpapers
p1005
I595
sVtest
p1006
I731
sVbulling
p1007
I1438
sVbecuase
p1008
I3335
sVsmell
p1009
I1752
sVrealize
p1010
I673
sVpicture
p1011
I688
sVconect
p1012
I3901
sV's
p1013
I68
sVbrothers
p1014
I3520
sVsurprise
p1015
I2659
sVfootball
p1016
I1191
sVstealing
p1017
I3377
sVupdate
p1018
I1633
sVdiet
p1019
I1812
sVbelive
p1020
I705
sV'd
p1021
I691
sVknowlage
p1022
I1786
sVscores
p1023
I2170
sV'm
p1024
I332
sVaware
p1025
I1247
sVweekend
p1026
I3093
sVdied
p1027
I1180
sVbillion
p1028
I3704
sVyounger
p1029
I1006
sVlonger
p1030
I889
sVpotato
p1031
I2403
sVassume
p1032
I2672
sVdaily
p1033
I494
sVforecast
p1034
I3738
sVclassmate
p1035
I2771
sVtime
p1036
I32
sVpush
p1037
I1536
sVserious
p1038
I874
sVprofits
p1039
I3705
sVstick
p1040
I1679
sVneighbors
p1041
I2457
sVconvienient
p1042
I1985
sVchilds
p1043
I1753
sVmanaged
p1044
I3706
sVchain
p1045
I2858
sVdance
p1046
I2990
sVglobal
p1047
I1385
sVfocus
p1048
I1160
sVleads
p1049
I1098
sVmanager
p1050
I2673
sVpeole
p1051
I1813
sVcomments
p1052
I2251
sVtheese
p1053
I3863
sVskin
p1054
I2674
sVbattle
p1055
I3521
sVchair
p1056
I965
sVrot
p1057
I3902
sVresourceful
p1058
I2675
sVcertainly
p1059
I1495
sVsuicide
p1060
I1298
sVdepend
p1061
I1116
sVnegitive
p1062
I1404
sVgraph
p1063
I2991
sVflash
p1064
I2358
sVfather
p1065
I976
sVeditors
p1066
I3095
sVenvironment
p1067
I664
sVanswered
p1068
I1348
sVfinally
p1069
I297
sVpermanently
p1070
I3522
sVbullys
p1071
I3523
sVdiscovering
p1072
I2458
sVidentity
p1073
I2181
sVverbally
p1074
I3336
sVshoot
p1075
I2676
sVdownloading
p1076
I2295
sVadvantage
p1077
I772
sVcheap
p1078
I2125
sVdivice
p1079
I3707
sVnone
p1080
I1583
sVchoice
p1081
I795
sVfees
p1082
I3979
sVstays
p1083
I2126
sVcook
p1084
I1596
sVword
p1085
I455
sVtrouble
p1086
I543
sVblast
p1087
I3525
sVexact
p1088
I2127
sVminute
p1089
I821
sVcool
p1090
I689
sVdrag
p1091
I3047
sVlevel
p1092
I1312
sVdid
p1093
I178
sVdie
p1094
I870
sVaudio
p1095
I2947
sVbrother
p1096
I773
sVleave
p1097
I645
sVitem
p1098
I1228
sVbikes
p1099
I2568
sVteam
p1100
I1135
sVquick
p1101
I600
sVguy
p1102
I1249
sVround
p1103
I2064
sVprevent
p1104
I988
sVhte
p1105
I3526
sVtalked
p1106
I1000
sVsays
p1107
I304
sVregret
p1108
I2359
sVadicted
p1109
I2188
sVcollage
p1110
I1538
sVdealing
p1111
I3708
sVcheak
p1112
I3932
sVdiscover
p1113
I1250
sVcyber
p1114
I744
sVsign
p1115
I2128
sVneglect
p1116
I2872
sVcost
p1117
I683
sVroof
p1118
I3664
sVhace
p1119
I2470
sVrun
p1120
I593
sVrough
p1121
I2569
sVeducate
p1122
I1241
sVstressful
p1123
I2756
sVappear
p1124
I3527
sVohter
p1125
I2860
sVremain
p1126
I2216
sVdebate
p1127
I1369
sVcurrent
p1128
I1136
sVgoes
p1129
I567
sVreply
p1130
I1467
sVfalling
p1131
I2297
sVcrashing
p1132
I3005
sVboost
p1133
I1983
sVfilled
p1134
I1814
sVsolitaire
p1135
I3665
sVsupporting
p1136
I2360
sVrealizing
p1137
I2861
sVpose
p1138
I2982
sVexercize
p1139
I1558
sVheavily
p1140
I3274
sVgrandparents
p1141
I1613
sVbacause
p1142
I3909
sVunderstanding
p1143
I1539
sVwater
p1144
I1363
sVentertain
p1145
I1266
sVbaseball
p1146
I701
sVgroups
p1147
I2460
sVaddress
p1148
I1203
sValone
p1149
I848
sValong
p1150
I788
sVteaches
p1151
I504
sVteacher
p1152
I406
sVchange
p1153
I505
sVwait
p1154
I755
sVbox
p1155
I1511
sVsending
p1156
I764
sVthirty
p1157
I2461
sVhealthy
p1158
I326
sVrember
p1159
I2065
sVrethink
p1160
I3197
sVwherever
p1161
I2298
sVproud
p1162
I2524
sVfinnally
p1163
I3709
sVaccomplished
p1164
I3339
sVraining
p1165
I1975
sVusually
p1166
I669
sVweird
p1167
I3198
sVstudies
p1168
I541
sVengineer
p1169
I3296
sVteenage
p1170
I2406
sVtasks
p1171
I1032
sVuseful
p1172
I339
sVextra
p1173
I942
sVprefer
p1174
I1204
sVmarvelous
p1175
I2526
sVfake
p1176
I1984
sVanouther
p1177
I3710
sVsurroundings
p1178
I2808
sVrarely
p1179
I1496
sVcrisis
p1180
I2097
sVmarket
p1181
I2172
sVhotels
p1182
I1579
sVeverybody
p1183
I738
sVworking
p1184
I525
sVprove
p1185
I1175
sVprobaly
p1186
I2678
sVpositive
p1187
I136
sVangry
p1188
I2299
sVscan
p1189
I2898
sVvisit
p1190
I537
sVbutts
p1191
I3006
sVsports
p1192
I374
sVmsn
p1193
I3911
sVlive
p1194
I209
sVprey
p1195
I2757
sVopposed
p1196
I2129
sVwondering
p1197
I1688
sVmemory
p1198
I2758
sVbelieving
p1199
I3207
sVthru
p1200
I1724
sVtoday
p1201
I278
sVloving
p1202
I2863
sVpeope
p1203
I2864
sV``
p1204
I41
sVsharing
p1205
I2679
sVafford
p1206
I1480
sVflying
p1207
I1810
sVequipped
p1208
I2879
sVclue
p1209
I2603
sVvisual
p1210
I2865
sVeverywhere
p1211
I881
sVcases
p1212
I1066
sVsocal
p1213
I3769
sVeffort
p1214
I1650
sVeasiest
p1215
I1869
sVbelong
p1216
I3593
sVfly
p1217
I1725
sVlogos
p1218
I3340
sVahve
p1219
I3912
sVwouldnt
p1220
I1797
sVextreamly
p1221
I3904
sVcar
p1222
I648
sVoriginally
p1223
I3341
sVpretend
p1224
I2528
sVbelieves
p1225
I2866
sVgraphis
p1226
I2993
sVcan
p1227
I21
sVcam
p1228
I1602
sVfollowing
p1229
I1337
sVmaking
p1230
I354
sVarrive
p1231
I3097
sVnewspapers
p1232
I1630
sVheart
p1233
I943
sVcrazy
p1234
I1929
sVcitizens
p1235
I1166
sVfigure
p1236
I1192
sVawesome
p1237
I1754
sVblogging
p1238
I3785
sVtopic
p1239
I412
sVheard
p1240
I528
sS'<pad>'
p1241
I0
sVdropped
p1242
I2253
sVallowed
p1243
I1205
sVreminded
p1244
I3390
sVclothing
p1245
I3256
sVoccur
p1246
I3387
sVlistens
p1247
I3343
sVpink
p1248
I3711
sVproductive
p1249
I1898
sVwinter
p1250
I2529
sVwatching
p1251
I640
sVsudden
p1252
I2212
sVmagazine
p1253
I1809
sVwrite
p1254
I290
sVtill
p1255
I1651
sVvital
p1256
I1161
sVpure
p1257
I3712
sVhaveing
p1258
I1801
sVeight
p1259
I2083
sVeconomy
p1260
I996
sVmap
p1261
I1090
sVstaying
p1262
I686
sVdesigner
p1263
I3713
sVexplorer
p1264
I2530
sVhuge
p1265
I481
sVcritics
p1266
I3714
sVcranky
p1267
I2939
sVaol
p1268
I3262
sVspot
p1269
I1755
sVapplications
p1270
I1689
sVbirthday
p1271
I1681
sVmad
p1272
I1503
sVcommit
p1273
I2604
sVdate
p1274
I1206
sVsuch
p1275
I188
sVdata
p1276
I989
sVgrow
p1277
I1001
sVman
p1278
I719
sVstress
p1279
I1242
sVsurfing
p1280
I1870
sVnatural
p1281
I835
sVremember
p1282
I367
sVwhenever
p1283
I1016
sVmaybe
p1284
I338
sVgoal
p1285
I3969
sVvactions
p1286
I3715
sVinform
p1287
I1416
sVso
p1288
I42
sVbasket
p1289
I3716
sVdefinitions
p1290
I1986
sVbeacuse
p1291
I2462
sVtutoring
p1292
I3630
sVtalk
p1293
I74
sVcomputor
p1294
I1652
sVbreaking
p1295
I1853
sVshoes
p1296
I2680
sVwebpage
p1297
I2300
sVindeed
p1298
I2029
sVmainly
p1299
I1672
sVyears
p1300
I320
sVbrain
p1301
I496
sVepisodes
p1302
I2301
sVexperiments
p1303
I2867
sVhabbit
p1304
I2130
sVcuts
p1305
I2681
sVdumb
p1306
I3626
sVstatements
p1307
I2522
sVcold
p1308
I1251
sVstill
p1309
I276
sV\u201c
p1310
I1540
sVpolice
p1311
I1117
sVthank
p1312
I512
sVwheight
p1313
I3233
sVselves
p1314
I3530
sVinteresting
p1315
I842
sVtroubles
p1316
I2868
sVhot
p1317
I1478
sVdecreases
p1318
I3345
sVforms
p1319
I1497
sVwindow
p1320
I1900
sVoffers
p1321
I1523
sVmail
p1322
I827
sVmain
p1323
I564
sVdecades
p1324
I2302
sVawnser
p1325
I3896
sVhappened
p1326
I676
sVnon
p1327
I1901
sVlonely
p1328
I1468
sVemailed
p1329
I3100
sVviews
p1330
I3101
sVthrid
p1331
I2995
sVsmarter
p1332
I796
sVkiller
p1333
I3718
sVsooner
p1334
I2408
sVnation
p1335
I1207
sVlunch
p1336
I1457
sVtommorrow
p1337
I3920
sVbase
p1338
I2618
sVhalf
p1339
I552
sVnot
p1340
I34
sVfeature
p1341
I3199
sVnow
p1342
I111
sVkilled
p1343
I1229
sVnor
p1344
I1902
sVwont
p1345
I608
sVterm
p1346
I3200
sVname
p1347
I507
sVlies
p1348
I3089
sVpenpals
p1349
I3531
sVdrop
p1350
I1334
sVlocked
p1351
I2509
sVpossibilities
p1352
I1673
sVhandwrite
p1353
I3347
sVpinball
p1354
I3416
sVshy
p1355
I2254
sVmagazines
p1356
I2855
sVentirely
p1357
I3532
sVindividually
p1358
I3921
sVr
p1359
I3202
sVsquare
p1360
I3348
sVretrieve
p1361
I3349
sVfired
p1362
I2174
sVbadly
p1363
I2452
sVbeloved
p1364
I3778
sVyeah
p1365
I2175
sVwrap
p1366
I3331
sVcatching
p1367
I1847
sVex
p1368
I2996
sVbegun
p1369
I2464
sVyear
p1370
I368
sVhappen
p1371
I426
sVmorning
p1372
I1819
sVobsession
p1373
I2759
sVdisasters
p1374
I1690
sVamusement
p1375
I3533
sVtried
p1376
I1391
sValbum
p1377
I2998
sVliving
p1378
I610
sVshown
p1379
I1176
sVaccomplish
p1380
I1903
sVreasearch
p1381
I1364
sVspace
p1382
I1082
sVfurthermore
p1383
I732
sVmultiplayer
p1384
I3103
sVincrease
p1385
I576
sVattracted
p1386
I3923
sVseriously
p1387
I2131
sVstupid
p1388
I1581
sVimperative
p1389
I2682
sVhacked
p1390
I2761
sVinternet
p1391
I98
sVcomptuer
p1392
I1440
sVreceiving
p1393
I2999
sVsweet
p1394
I3991
sVcorrect
p1395
I1151
sVshows
p1396
I438
sVearlier
p1397
I1816
sVmonster
p1398
I3720
sVcars
p1399
I1144
sVmillion
p1400
I1073
sVpossibility
p1401
I3350
sVquite
p1402
I1137
sVadvantages
p1403
I1441
sVbesides
p1404
I862
sVgrandma
p1405
I1871
sVcard
p1406
I997
sVcare
p1407
I625
sVpartner
p1408
I3835
sVadvance
p1409
I828
sVtraining
p1410
I2533
sVcouldn
p1411
I3000
sVlanguage
p1412
I739
sVtechnolgy
p1413
I3534
sVcomunicate
p1414
I927
sVdownsides
p1415
I2871
sVworrying
p1416
I2413
sVthing
p1417
I127
sVplace
p1418
I244
sVmassive
p1419
I1987
sVswing
p1420
I2465
sVstyles
p1421
I3215
sVwarning
p1422
I2495
sVthink
p1423
I59
sVfrequent
p1424
I3104
sVfirst
p1425
I170
sVblind
p1426
I1442
sVcheese
p1427
I3723
sVconstantly
p1428
I1008
sVsaving
p1429
I1208
sVcyberbulling
p1430
I2364
sVsoftball
p1431
I2778
sVyourself
p1432
I457
sVamericans
p1433
I1654
sVlong
p1434
I215
sVdirectly
p1435
I2365
sVspanish
p1436
I2304
sVcarry
p1437
I2207
sVimpossible
p1438
I1559
sVsounds
p1439
I1256
sVraped
p1440
I3332
sVopen
p1441
I692
sVtomorrow
p1442
I1386
sVmillions
p1443
I617
sVcity
p1444
I1541
sVgiven
p1445
I931
sVchecked
p1446
I1788
sVknoledge
p1447
I2466
sVcaught
p1448
I1387
sVanyone
p1449
I448
sVprobibly
p1450
I3724
sVdraft
p1451
I1756
sVrecipies
p1452
I2583
sVtyping
p1453
I308
sVlegally
p1454
I3927
sVwhite
p1455
I2467
sVcite
p1456
I3353
sVfriend
p1457
I192
sVgives
p1458
I342
sVthas
p1459
I2840
sVbenifits
p1460
I1085
sVeyes
p1461
I343
sVhug
p1462
I3928
sVmostly
p1463
I649
sVthat
p1464
I13
sVbrains
p1465
I1904
sVthay
p1466
I1634
sVhurtful
p1467
I2513
sVbroadcast
p1468
I3726
sVreleased
p1469
I2762
sVridiculous
p1470
I2305
sVinstalling
p1471
I3908
sVcopy
p1472
I1365
sVthan
p1473
I123
sVpopulation
p1474
I843
sVwide
p1475
I844
sVtelevision
p1476
I1289
sV:
p1477
I445
sVeffective
p1478
I1610
sVdepressed
p1479
I1481
sVrequire
p1480
I1194
sVnon-stop
p1481
I2306
sVon-line
p1482
I2123
sVrehab
p1483
I2874
sVrelly
p1484
I3964
sVfuture
p1485
I447
sVwere
p1486
I175
sVcards
p1487
I1675
sVgigantic
p1488
I3728
sVwandering
p1489
I3354
sVdissapointed
p1490
I3929
sV1/
p1491
I3105
sVbrowser
p1492
I3002
sVand
p1493
I7
sVtwinkies
p1494
I3685
sVtopics
p1495
I1002
sVturned
p1496
I1757
sVargument
p1497
I1150
sVsad
p1498
I917
sVthrew
p1499
I1647
sVsay
p1500
I116
sVrent
p1501
I1961
sVans
p1502
I3930
sVanger
p1503
I3230
sVbreakfast
p1504
I3536
sVsaw
p1505
I990
sVany
p1506
I194
sVsat
p1507
I2307
sVoffering
p1508
I3537
sVi.ming
p1509
I3792
sVefficient
p1510
I1118
sVanswering
p1511
I3107
sVisolate
p1512
I3731
sVideas
p1513
I618
sVzoo
p1514
I2876
sVe-mailing
p1515
I2410
sVequipment
p1516
I1789
sVideal
p1517
I3204
sVpotential
p1518
I2208
sVtake
p1519
I147
sVonline
p1520
I82
sVwanting
p1521
I1691
sVwonder
p1522
I1022
sVheal
p1523
I3898
sVchannel
p1524
I1930
sVsurf
p1525
I1366
sVurge
p1526
I1676
sVbegin
p1527
I733
sVsure
p1528
I346
sVmultiple
p1529
I1125
sVnormal
p1530
I1300
sVtrack
p1531
I1052
sVprice
p1532
I1083
sVknew
p1533
I729
sVbullyed
p1534
I3356
sVclearer
p1535
I3931
sVpaid
p1536
I2401
sV@num
p1537
I79
sVprinted
p1538
I2132
sVsheets
p1539
I3733
sVpleasure
p1540
I1408
sVpair
p1541
I3734
sVflowing
p1542
I3436
sVamerica
p1543
I1498
sVpages
p1544
I966
sVdefinatly
p1545
I2122
sV@city
p1546
I2683
sVforever
p1547
I1044
sVespecially
p1548
I671
sVconsidered
p1549
I3205
sVaverage
p1550
I571
sVlater
p1551
I658
sVdrive
p1552
I863
sVmessenger
p1553
I3816
sVrecieves
p1554
I2654
sVhear
p1555
I581
sVsenior
p1556
I2764
sVtypically
p1557
I3538
sVfiling
p1558
I3004
sVlaws
p1559
I1988
sVshop
p1560
I769
sVwalking
p1561
I1033
sVdrastically
p1562
I3206
sVshot
p1563
I1931
sVshow
p1564
I336
sVrecipe
p1565
I2098
sVdiscovered
p1566
I1790
sVusualy
p1567
I3358
sVbright
p1568
I1542
sVhack
p1569
I1427
sVcorner
p1570
I2412
sVaggressive
p1571
I3359
sVbenefitial
p1572
I2030
sVground
p1573
I1977
sVaint
p1574
I3539
sVslow
p1575
I1011
sVwitch
p1576
I1671
sVposative
p1577
I3157
sVenough
p1578
I293
sVcrime
p1579
I1740
sVgoind
p1580
I2677
sVonly
p1581
I141
sVgoing
p1582
I121
sVblack
p1583
I3109
sVhockey
p1584
I2878
sVinventions
p1585
I1290
sVrecipes
p1586
I2231
sVawareness
p1587
I3735
sVefficently
p1588
I3560
sVcorrectly
p1589
I1715
sVuncles
p1590
I3208
sVget
p1591
I45
sVrevolutionized
p1592
I3360
sVobease
p1593
I1758
sVtruly
p1594
I1443
sVdefine
p1595
I3828
sVnearly
p1596
I1405
sVsquirrels
p1597
I3540
sVprogress
p1598
I3159
sVobeast
p1599
I2535
sVenjoys
p1600
I3110
sVcelebrate
p1601
I2869
sVchosse
p1602
I3736
sVregarding
p1603
I3933
sVresource
p1604
I1034
sVsmoking
p1605
I3957
sVartist
p1606
I3473
sVcoumputers
p1607
I2880
sVworried
p1608
I1209
sVmiles
p1609
I1053
sVcoordiantion
p1610
I1655
sVgps
p1611
I3236
sVwhere
p1612
I197
sVcommunicated
p1613
I2409
sVvision
p1614
I1074
sVpicnic
p1615
I3209
sVsiblings
p1616
I2479
sVphysically
p1617
I944
sVcommitted
p1618
I3019
sVables
p1619
I3934
sVrelative
p1620
I1349
sVunfit
p1621
I3542
sVcollege
p1622
I441
sVanyways
p1623
I1989
sVsurgery
p1624
I1873
sVsport
p1625
I898
sVconcern
p1626
I696
sVyouself
p1627
I3361
sVfails
p1628
I3935
sVleaning
p1629
I3543
sVthease
p1630
I2881
sVcamping
p1631
I2209
sVways
p1632
I212
sValarming
p1633
I2882
sVdefinite
p1634
I3936
sVsites
p1635
I313
sVits
p1636
I169
sVoutside
p1637
I145
sVun
p1638
I2924
sVbetween
p1639
I598
sVaffecting
p1640
I1428
sVteens
p1641
I422
sVreading
p1642
I295
sVacross
p1643
I620
sVaffordable
p1644
I3739
sVnotice
p1645
I924
sVjobs
p1646
I287
sVparent
p1647
I953
sVscreen
p1648
I309
sVplanes
p1649
I3801
sVinjoy
p1650
I3362
sVsupermarket
p1651
I3363
sVkilling
p1652
I1820
sVblame
p1653
I1177
sVinapropriate
p1654
I2177
sVconcentrate
p1655
I3364
sVspare
p1656
I2638
sVhurts
p1657
I2031
sVarticle
p1658
I585
sVcities
p1659
I2471
sVcome
p1660
I267
sVrecall
p1661
I3768
sVreaction
p1662
I2472
sVdates
p1663
I2684
sVtuch
p1664
I3742
sVmany
p1665
I60
sVaccording
p1666
I1119
sVsomewhere
p1667
I1078
sVs
p1668
I776
sVworkplace
p1669
I2213
sVbusness
p1670
I3918
sVorginized
p1671
I3741
sVlong-distance
p1672
I2402
sVexpression
p1673
I3365
sVcomes
p1674
I492
sVnearby
p1675
I2608
sVamong
p1676
I2210
sVmadness
p1677
I3009
sVcancer
p1678
I1350
sVperiod
p1679
I1597
sVpop
p1680
I1195
sVtehre
p1681
I3937
sVimpared
p1682
I3803
sVlearning
p1683
I255
sVoccuring
p1684
I3258
sVmoreover
p1685
I1704
sVpoll
p1686
I1267
sVboat
p1687
I3116
sVcaring
p1688
I1616
sVarts
p1689
I3753
sVlifes
p1690
I1313
sVgrand
p1691
I2380
sVcapable
p1692
I2415
sVstretch
p1693
I3366
sVinformed
p1694
I1791
sVvacation
p1695
I542
sVmark
p1696
I3111
sVbreath
p1697
I2308
sVwhos
p1698
I3992
sVdangers
p1699
I1222
sVtechnical
p1700
I2929
sVhardly
p1701
I1525
sVsystems
p1702
I1909
sVengine
p1703
I1234
sVdirection
p1704
I1963
sVeducated
p1705
I1301
sVshopping
p1706
I713
sVstorm
p1707
I2780
sVincome
p1708
I2791
sVunsafe
p1709
I2331
sVthousand
p1710
I2309
sVlaptops
p1711
I978
sVphotos
p1712
I1374
sVdramatic
p1713
I3744
sVwake
p1714
I2211
sVtextbook
p1715
I1705
sVlaying
p1716
I3382
sVcareful
p1717
I1469
sVformer
p1718
I2884
sVthose
p1719
I216
sVcountless
p1720
I1145
sVsound
p1721
I1181
sVglobally
p1722
I3367
sVmyself
p1723
I759
sVdeveloping
p1724
I2367
sVthese
p1725
I114
sVeasyer
p1726
I1875
sVresturant
p1727
I2885
sVn't
p1728
I33
sVproves
p1729
I1687
sVjoke
p1730
I2723
sVnewspaper
p1731
I160
sVsituation
p1732
I1323
sVeventually
p1733
I954
sVtelephone
p1734
I1470
sVsleeping
p1735
I2686
sVdecied
p1736
I3193
sVmiddle
p1737
I955
sVfinnaly
p1738
I2416
sVsomeone
p1739
I199
sVdrug
p1740
I1775
sVcomuter
p1741
I1598
sVloosing
p1742
I2067
sVreturn
p1743
I3974
sVwisely
p1744
I1726
sVtechnology
p1745
I130
sVeveryday
p1746
I239
sVworry
p1747
I853
sVtourist
p1748
I2687
sVdifferent
p1749
I196
sVdevelop
p1750
I1223
sVdisrespectful
p1751
I3773
sVdoctor
p1752
I928
sVpay
p1753
I396
sVknolage
p1754
I2688
sVfewer
p1755
I2562
sVsame
p1756
I303
sVcheck
p1757
I401
sVeverday
p1758
I2310
sVpad
p1759
I3112
sVarguments
p1760
I1821
sVstruggling
p1761
I3745
sVphysical
p1762
I763
sVpal
p1763
I3113
sVevents
p1764
I751
sVweek
p1765
I582
sVfinish
p1766
I899
sVsickness
p1767
I3369
sVdisadvantages
p1768
I1849
sVenjoyment
p1769
I2178
sVdownloads
p1770
I3939
sVresturants
p1771
I3124
sVdriver
p1772
I3212
sVcompanion
p1773
I3746
sVscientist
p1774
I1368
sVpersons
p1775
I1196
sVrunning
p1776
I871
sVchanging
p1777
I1471
sVtotally
p1778
I1822
sVmentally
p1779
I2032
sVrelies
p1780
I3940
sVenviorment
p1781
I2685
sVaunts
p1782
I2671
sVeducating
p1783
I3294
sVshared
p1784
I3528
sVfloor
p1785
I2857
sVsevere
p1786
I2033
sVwithout
p1787
I138
sVsolve
p1788
I1302
sVrelief
p1789
I3401
sVcanceled
p1790
I2610
sVbodies
p1791
I1472
sVschoolers
p1792
I3549
sVoutdoor
p1793
I1512
sVgangs
p1794
I3747
sVbeing
p1795
I149
sVmoney
p1796
I245
sVsights
p1797
I1727
sVrest
p1798
I797
sVpersonaly
p1799
I2134
sVbecomeing
p1800
I2657
sVviolent
p1801
I3213
sVkill
p1802
I921
sVaspect
p1803
I1932
sVtouch
p1804
I227
sVn
p1805
I3885
sVplugged
p1806
I3138
sVspeed
p1807
I1335
sVhalfway
p1808
I2256
sVblow
p1809
I3944
sVdeath
p1810
I1388
sVgrounded
p1811
I2536
sVapplication
p1812
I2042
sVthinking
p1813
I650
sVcomptuers
p1814
I2417
sVseems
p1815
I1067
sVexcept
p1816
I1599
sVdesktop
p1817
I2369
sVblog
p1818
I2475
sVinstrument
p1819
I3370
sVlets
p1820
I356
sVsetting
p1821
I2250
sVfoor
p1822
I3572
sVexercis
p1823
I1991
sVinstructions
p1824
I2485
sVcomunicating
p1825
I3666
sVhandeye
p1826
I3214
sVcareers
p1827
I3749
sVreal
p1828
I369
sVaspects
p1829
I1759
sVaround
p1830
I165
sVkills
p1831
I3216
sVcompter
p1832
I1964
sVread
p1833
I271
sVdigital
p1834
I2205
sVbecuse
p1835
I2499
sVdark
p1836
I1324
sVfindout
p1837
I3334
sVtraffic
p1838
I3372
sVmon
p1839
I3750
sVlistening
p1840
I1084
sVworld
p1841
I88
sVlady
p1842
I2611
sVexcrise
p1843
I1811
sVdare
p1844
I2888
sVfortune
p1845
I3417
sVstranger
p1846
I1992
sVpounds
p1847
I1146
sVphotographs
p1848
I3845
sVbuddies
p1849
I2476
sVgyms
p1850
I2554
sVserves
p1851
I3114
sV've
p1852
I428
sVfacing
p1853
I2691
sVbenefit
p1854
I229
sVt
p1855
I530
sVfully
p1856
I2376
sVbusnesses
p1857
I3081
sVreduced
p1858
I3218
sVverbal
p1859
I3010
sVexposed
p1860
I1767
sVcomuters
p1861
I1993
sVhelpfull
p1862
I1461
sVcompetition
p1863
I3945
sVcognitive
p1864
I3134
sVerase
p1865
I3751
sVarticol
p1866
I3946
sVtable
p1867
I2477
sVimages
p1868
I1933
sVtreatments
p1869
I3388
sVorganizing
p1870
I3115
sVthinks
p1871
I1211
sVprovided
p1872
I2766
sVwhould
p1873
I2889
sVperfer
p1874
I3947
sVpoorly
p1875
I2731
sVmemories
p1876
I1617
sVtube
p1877
I2537
sVstops
p1878
I2100
sVcritical
p1879
I2068
sVprovides
p1880
I1126
sVbraindead
p1881
I3552
sVconsidering
p1882
I2414
sVsaftey
p1883
I2035
sVfelt
p1884
I1510
sVscientific
p1885
I3373
sVpower
p1886
I864
sVseconds
p1887
I652
sVfitness
p1888
I1728
sVcommunicate
p1889
I214
sVbroken
p1890
I1934
sVexciting
p1891
I1792
sVthrow
p1892
I1706
sVon
p1893
I11
sVstone
p1894
I2135
sVok
p1895
I1418
sVoh
p1896
I1235
sVothe
p1897
I2069
sVof
p1898
I14
sVindustry
p1899
I2538
sVviolence
p1900
I1935
sVfavorite
p1901
I654
sVbonding
p1902
I2793
sVthousands
p1903
I715
sVpractical
p1904
I3117
sVfell
p1905
I3703
sVstand
p1906
I1127
sVneighbor
p1907
I1876
sVact
p1908
I936
sVov
p1909
I3951
sVou
p1910
I3220
sVbond
p1911
I1760
sVor
p1912
I29
sVroad
p1913
I2070
sVop
p1914
I3221
sVresearching
p1915
I809
sVlands
p1916
I3118
sVdecreased
p1917
I2870
sVburning
p1918
I1994
sVteamwork
p1919
I3011
sVcommunication
p1920
I260
sVimage
p1921
I2312
sVnoone
p1922
I3031
sVaccounts
p1923
I1850
sVhomeless
p1924
I3814
sVparties
p1925
I2313
sVelementary
p1926
I2612
sVwebsights
p1927
I2768
sVlastly
p1928
I248
sVnowadays
p1929
I1291
sVyour
p1930
I28
sVstare
p1931
I1389
sVtropical
p1932
I3374
sVlog
p1933
I945
sVher
p1934
I221
sVarea
p1935
I1109
sVaren
p1936
I2338
sVdistracted
p1937
I1182
sVhey
p1938
I2080
sVadicting
p1939
I2613
sVstart
p1940
I334
sVmindless
p1941
I3375
sVlow
p1942
I1793
sVlot
p1943
I133
sVcultures
p1944
I690
sVbubble
p1945
I3376
sVmaterials
p1946
I2666
sVchats
p1947
I1582
sVrelie
p1948
I2769
sVcomplete
p1949
I1035
sVdelayed
p1950
I3556
sVexcersizing
p1951
I1696
sVcabinet
p1952
I3222
sVbookstore
p1953
I3756
sVended
p1954
I1683
sVcorse
p1955
I3757
sVtechnologies
p1956
I2138
sVtrying
p1957
I463
sVwith
p1958
I25
sVcopied
p1959
I3827
sVbuying
p1960
I967
sVhappening
p1961
I678
sVpull
p1962
I1375
sVrush
p1963
I1995
sVapplying
p1964
I3952
sVromantic
p1965
I3119
sVpostive
p1966
I2372
sVorganize
p1967
I1381
sVgrass
p1968
I2770
sVagree
p1969
I226
sVexpect
p1970
I2263
sVstrongly
p1971
I641
sVgone
p1972
I711
sVad
p1973
I1997
sVvideos
p1974
I370
sVcertain
p1975
I559
sVignorant
p1976
I2628
sVmoved
p1977
I590
sVsales
p1978
I2036
sVdeep
p1979
I2419
sVgeneral
p1980
I1319
sVimagination
p1981
I2693
sVas
p1982
I57
sVar
p1983
I1075
sVtogether
p1984
I423
sVfile
p1985
I1732
sVwalks
p1986
I1877
sVvidio
p1987
I2140
sVlifetime
p1988
I2214
sVmoves
p1989
I1635
sVhospitals
p1990
I3557
sVspends
p1991
I784
sVfill
p1992
I2071
sVagain
p1993
I501
sVyoga
p1994
I1878
sVexcersicing
p1995
I3223
sVdirect
p1996
I2735
sVdrivers
p1997
I3758
sVfarther
p1998
I3183
sVcyberbullying
p1999
I1834
sV@dr
p2000
I1692
sVfield
p2001
I1458
sVvalid
p2002
I3559
sVsomeones
p2003
I1998
sVyou
p2004
I8
sVtrash
p2005
I1965
sVyor
p2006
I2373
sVgaining
p2007
I1224
sVpolar
p2008
I3012
sVobsessed
p2009
I1656
sVseparate
p2010
I2772
sVstudents
p2011
I208
sVa+
p2012
I2141
sVincludes
p2013
I1966
sVcomputerized
p2014
I3013
sVimportant
p2015
I152
sVfinaly
p2016
I1851
sVbuisnesses
p2017
I918
sVstocks
p2018
I1852
sVpool
p2019
I3014
sVbuilding
p2020
I1390
sVcalls
p2021
I1526
sVwife
p2022
I1741
sVinvest
p2023
I3956
sVtricks
p2024
I2315
sVwebsites
p2025
I168
sVhello
p2026
I1884
sVposts
p2027
I3905
sVcouse
p2028
I3015
sVpassed
p2029
I2619
sVu
p2030
I1657
sValright
p2031
I3760
sVoverseas
p2032
I3561
sVsongs
p2033
I2171
sVstarting
p2034
I956
sVcpu
p2035
I3309
sVmiltary
p2036
I3761
sVall
p2037
I39
sVmotem
p2038
I3869
sVforget
p2039
I498
sVpointing
p2040
I3562
sVdonated
p2041
I3897
sVcaused
p2042
I919
sVlack
p2043
I601
sVdollar
p2044
I3762
sVmonth
p2045
I1110
sVcalifornia
p2046
I3721
sVstuding
p2047
I3639
sVreson
p2048
I1280
sVfollow
p2049
I3958
sVfaster
p2050
I351
sVdecisions
p2051
I2478
sVchildren
p2052
I190
sVcauses
p2053
I968
sVcontent
p2054
I2196
sVtv
p2055
I1356
sVopportunities
p2056
I1473
sVlaughing
p2057
I1999
sVto
p2058
I5
sVprogram
p2059
I774
sVwants
p2060
I603
sVth
p2061
I2542
sVti
p2062
I2000
sVhealth
p2063
I264
sVenjoying
p2064
I330
sVpresentation
p2065
I1967
sVactivities
p2066
I502
sVwoman
p2067
I1968
sVfriends/family
p2068
I1708
sVworse
p2069
I805
sVspreading
p2070
I2418
sVsitting
p2071
I329
sVvery
p2072
I104
sVfaw
p2073
I3960
sVfat
p2074
I539
sVoccasionally
p2075
I3970
sVchores
p2076
I2258
sVworst
p2077
I1236
sVdecide
p2078
I854
sVfall
p2079
I1257
sVawful
p2080
I2774
sVticket
p2081
I1742
sVdifference
p2082
I1514
sVobeisity
p2083
I3381
sVfourth
p2084
I3913
sVtreating
p2085
I3962
sVenviroment
p2086
I3295
sVmothers
p2087
I3121
sVcelebrity
p2088
I3763
sVlist
p2089
I1474
sVjoined
p2090
I1879
sVconvienent
p2091
I3122
sVlarge
p2092
I837
sVsmall
p2093
I822
sVtypers
p2094
I3563
sVteh
p2095
I3226
sVquicker
p2096
I722
sVneighborhood
p2097
I2421
sVportable
p2098
I2422
sVten
p2099
I659
sVstreets
p2100
I1292
sVcash
p2101
I3938
sVpast
p2102
I606
sVrate
p2103
I890
sVinvention
p2104
I721
sVdesign
p2105
I1743
sVperspective
p2106
I2694
sVpass
p2107
I937
sVfurther
p2108
I1351
sVrectangular
p2109
I3832
sVsould
p2110
I3094
sVbelief
p2111
I2902
sVtrick
p2112
I3544
sVwhat
p2113
I77
sVfacebooking
p2114
I3963
sVsun
p2115
I1268
sVsum
p2116
I1419
sVwhay
p2117
I3227
sVexersice
p2118
I1253
sVscientists
p2119
I1138
sVlearned
p2120
I549
sVracing
p2121
I3228
sVpublic
p2122
I929
sVmovement
p2123
I2423
sVoutgoing
p2124
I3764
sVfull
p2125
I849
sVma
p2126
I2404
sVtikets
p2127
I3800
sVloose
p2128
I900
sVposes
p2129
I3329
sVanswers
p2130
I1252
sVhours
p2131
I231
sVsmartest
p2132
I2892
sVtracks
p2133
I3564
sVobeise
p2134
I3903
sVeassy
p2135
I2893
sVexcess
p2136
I3508
sVdirections
p2137
I710
sVstrong
p2138
I946
sVsomthing
p2139
I1701
sVaddictions
p2140
I3565
sVsearch
p2141
I301
sVahead
p2142
I1562
sVdifficulty
p2143
I2697
sVverry
p2144
I3965
sVengineers
p2145
I3995
sVallows
p2146
I331
sVexperience
p2147
I522
sVpics
p2148
I2544
sVsoldier
p2149
I2614
sVamount
p2150
I436
sVhealthier
p2151
I1139
sVarent
p2152
I901
sVsocial
p2153
I220
sVaction
p2154
I1761
sVoptions
p2155
I1527
sVstruggle
p2156
I3672
sVheadache
p2157
I3580
sVvia
p2158
I1076
sVfollowed
p2159
I3384
sVfamily
p2160
I54
sVsuddenly
p2161
I2775
sVscreens
p2162
I1420
sVput
p2163
I337
sVindoors
p2164
I1482
sVtoys
p2165
I3016
sVw/
p2166
I3502
sVve
p2167
I2943
sVattendance
p2168
I2894
sVeye
p2169
I259
sVtakes
p2170
I529
sVimproves
p2171
I1764
sVdestination
p2172
I1938
sVtexting
p2173
I1153
sVtwo
p2174
I403
sVsocialization
p2175
I2776
sVerror
p2176
I3285
sVimplore
p2177
I2895
sVgorgeous
p2178
I3385
sVtaken
p2179
I723
sVkick
p2180
I3064
sVminor
p2181
I3231
sVmore
p2182
I47
sVteen
p2183
I920
sVasks
p2184
I2343
sVdoor
p2185
I1483
sVknows
p2186
I786
sVcompany
p2187
I661
sVtasking
p2188
I2425
sVexcuse
p2189
I1908
sVflag
p2190
I3232
sVbasically
p2191
I859
sVbroke
p2192
I1709
sVparticular
p2193
I3767
sVknown
p2194
I845
sVrelized
p2195
I3576
sVhurry
p2196
I3567
sVnegativity
p2197
I2896
sVaddicts
p2198
I3892
sVtown
p2199
I613
sVhardware
p2200
I2572
sVkeeping
p2201
I681
sVinclude
p2202
I2795
sVprogressing
p2203
I3837
sVhour
p2204
I420
sVstrain
p2205
I2215
sVscience
p2206
I716
sVsocialy
p2207
I2897
sVreserch
p2208
I3585
sVmall
p2209
I1376
sVparagraph
p2210
I1183
sVnine
p2211
I1563
sVresources
p2212
I1215
sVevolved
p2213
I2319
sVlearn
p2214
I72
sVtheis
p2215
I3872
sVhistory
p2216
I497
sVbeautiful
p2217
I644
sVpotatoe
p2218
I3910
sVcompare
p2219
I1939
sVneeding
p2220
I2777
sVprompt
p2221
I2320
sVchallenging
p2222
I3966
sVimpacts
p2223
I2546
sVstated
p2224
I792
sVwedsites
p2225
I3301
sVvoilence
p2226
I3054
sVfunctions
p2227
I3654
sVshare
p2228
I856
sVtaht
p2229
I2427
sVstates
p2230
I633
sVpushed
p2231
I3017
sVnumbers
p2232
I1154
sVsense
p2233
I1545
sVpond
p2234
I3967
sVairplane
p2235
I3968
sVspecies
p2236
I2179
sVfirmly
p2237
I2615
sV!
p2238
I80
sVinformation
p2239
I96
sVneeds
p2240
I421
sVt.v
p2241
I1444
sVbat
p2242
I2935
sVrather
p2243
I363
sVcomfort
p2244
I1406
sVconducted
p2245
I1942
sVstayed
p2246
I1564
sVmaps
p2247
I1184
sVstrategy
p2248
I3650
sVmovements
p2249
I3123
sVexplains
p2250
I3971
sVplant
p2251
I2142
sVshouldnt
p2252
I2259
sVokay
p2253
I1162
sVplans
p2254
I882
sVrude
p2255
I1710
sVcommunicating
p2256
I674
sVsuppose
p2257
I1578
sVadvice
p2258
I1407
sVsoda
p2259
I2739
sVacess
p2260
I1677
sVreplace
p2261
I2109
sVplane
p2262
I991
sVblood
p2263
I2072
sVcoming
p2264
I750
sVsloppy
p2265
I2755
sVconcentrating
p2266
I3972
sVresponse
p2267
I1940
sVfo
p2268
I2037
sVa
p2269
I9
sVresons
p2270
I2038
sVshort
p2271
I1367
sVadiction
p2272
I3973
sVloud
p2273
I2198
sVsence
p2274
I2474
sVeats
p2275
I2217
sVanytime
p2276
I1565
sVrecipie
p2277
I3770
sVperhaps
p2278
I1862
sVgadgets
p2279
I3864
sVresponsibility
p2280
I1941
sVtelephones
p2281
I3018
sVmedia
p2282
I2368
sVputting
p2283
I1231
sVplaying
p2284
I222
sVtrough
p2285
I3608
sVphotoshop
p2286
I3569
sVhelp
p2287
I58
sVdeveloped
p2288
I2260
sVflowers
p2289
I3001
sVcomputres
p2290
I3570
sVsoon
p2291
I712
sVinstalled
p2292
I2547
sVheld
p2293
I2375
sVisnt
p2294
I1744
sVpaper
p2295
I257
sVthrough
p2296
I228
sVreconnect
p2297
I1314
sVsigns
p2298
I2899
sVsuffer
p2299
I1584
sVinsted
p2300
I1100
sVdont
p2301
I223
sVcomputors
p2302
I947
sVstyle
p2303
I1969
sVrapidly
p2304
I2321
sVsale
p2305
I2670
sVactually
p2306
I399
sVlate
p2307
I1003
sVresearcher
p2308
I3870
sVindividuals
p2309
I3418
sVruining
p2310
I1429
sVasignments
p2311
I3633
sVspeech
p2312
I3772
sVbout
p2313
I2483
sVsoccer
p2314
I1315
sVmight
p2315
I238
sVfool
p2316
I2616
sVwouldn
p2317
I2484
sVhurting
p2318
I1185
sVgood
p2319
I76
sVsomebody
p2320
I824
sVcalm
p2321
I2652
sVyo
p2322
I1711
sVseverely
p2323
I3392
sVfood
p2324
I589
sVcorrdination
p2325
I2581
sVlargest
p2326
I3272
sVsocially
p2327
I2218
sVpredator
p2328
I2261
sVprimary
p2329
I3871
sVoponion
p2330
I3774
sVobeasity
p2331
I2262
sVfancy
p2332
I3571
sVchating
p2333
I930
sVfoot
p2334
I3021
sVcomplain
p2335
I2426
sVbigger
p2336
I1528
sVsucked
p2337
I2002
sVeasily
p2338
I431
sVdocument
p2339
I1560
sVeverytime
p2340
I1168
sValways
p2341
I189
sVpayed
p2342
I3023
sVcourses
p2343
I2900
sVhabits
p2344
I1658
sVstopped
p2345
I1293
sVpredators
p2346
I1225
sVturns
p2347
I2027
sVfound
p2348
I366
sVshocking
p2349
I3393
sVfriendship
p2350
I1745
sVnotes
p2351
I1237
sVlifestyles
p2352
I3573
sVheavy
p2353
I1794
sVstatus
p2354
I1880
sVharm
p2355
I1120
sVeveryone
p2356
I198
sVmental
p2357
I1824
sVweight
p2358
I382
sVnegetive
p2359
I3024
sVgeneration
p2360
I875
sVhouse
p2361
I315
sVenergy
p2362
I1054
sVhard
p2363
I397
sVreduce
p2364
I2322
sVidea
p2365
I471
sVkidnapping
p2366
I3574
sVconnect
p2367
I400
sVadays
p2368
I1910
sVbeyond
p2369
I2180
sVpappers
p2370
I3976
sVevent
p2371
I2039
sVreally
p2372
I166
sVtakeing
p2373
I3394
sVdeals
p2374
I3250
sVlovers
p2375
I2696
sVmissed
p2376
I1325
sVwondered
p2377
I2101
sVsolved
p2378
I1537
sVbullied
p2379
I1091
sVsince
p2380
I373
sVpublish
p2381
I2617
sVresearch
p2382
I201
sVminuets
p2383
I3765
sVconclusions
p2384
I3316
sVsafety
p2385
I1045
sVcomputer.
p2386
I3776
sVprint
p2387
I770
sVoffline
p2388
I2548
sVissue
p2389
I586
sVoccurs
p2390
I3395
sVhighway
p2391
I2901
sVbye
p2392
I3260
sVdrink
p2393
I2945
sVdowns
p2394
I2656
sVbully
p2395
I2219
sVrisen
p2396
I2903
sVupon
p2397
I1243
sVyale
p2398
I3906
sVguess
p2399
I1377
sVhouses
p2400
I1294
sVreason
p2401
I102
sVshoping
p2402
I2143
sVmembers
p2403
I513
sVimagine
p2404
I510
sVask
p2405
I434
sVteach
p2406
I225
sVash
p2407
I3575
sVbeginning
p2408
I1825
sVhavent
p2409
I1409
sVthrown
p2410
I3977
sVdefinition
p2411
I2549
sVowners
p2412
I2144
sVbenefits
p2413
I322
sVcomputers
p2414
I10
sVterrible
p2415
I1111
sVamericas
p2416
I3577
sVamerican
p2417
I1795
sVbusinessmen
p2418
I3578
sVthreat
p2419
I2265
sVtwenty
p2420
I1729
sVfallen
p2421
I3978
sVassign
p2422
I3026
sVfeed
p2423
I2779
sVwebcams
p2424
I1316
sVmajor
p2425
I682
sVunhealthy
p2426
I480
sVsomeday
p2427
I2804
sVfeel
p2428
I284
sVrelate
p2429
I2102
sVbullies
p2430
I2073
sVnumber
p2431
I491
sVwelcome
p2432
I2989
sVtraveled
p2433
I3234
sVfeet
p2434
I2124
sVsisters
p2435
I3838
sVdone
p2436
I274
sVwach
p2437
I3847
sVwebcame
p2438
I3025
sVslower
p2439
I3235
sVmiss
p2440
I604
sVstory
p2441
I846
sVheads
p2442
I2904
sVguest
p2443
I3396
sVintresting
p2444
I3886
sVintroduction
p2445
I2905
sVleading
p2446
I1600
sVinteract
p2447
I299
sVporn
p2448
I3907
sVthreatening
p2449
I3397
sVleast
p2450
I381
sV@person
p2451
I144
sVpaint
p2452
I3125
sVwonderful
p2453
I780
sVwarming
p2454
I1607
sVstatement
p2455
I1303
sVrates
p2456
I2350
sVessays
p2457
I883
sVhundred
p2458
I1762
sVfinances
p2459
I2781
sVstore
p2460
I556
sVlisted
p2461
I2838
sVmuscles
p2462
I1730
sVoption
p2463
I1475
sVrelationship
p2464
I1105
sVbehind
p2465
I1152
sVhotel
p2466
I1970
sVpark
p2467
I707
sVinterviewed
p2468
I2323
sVinternent
p2469
I1659
sVpart
p2470
I355
sVboredom
p2471
I2622
sVdoctors
p2472
I872
sVfocusing
p2473
I2907
sValbums
p2474
I3033
sVbelieve
p2475
I157
sVstairs
p2476
I2550
sVbodys
p2477
I3676
sVtacking
p2478
I3779
sVtraps
p2479
I3548
sVimformation
p2480
I2040
sVking
p2481
I3980
sVkind
p2482
I700
sVgrew
p2483
I2182
sVbag
p2484
I3683
sVhorizons
p2485
I3126
sVgotten
p2486
I957
sVpc
p2487
I3993
sVbeileve
p2488
I3398
sVyouth
p2489
I1352
sVnevertheless
p2490
I3839
sVfamilys
p2491
I1155
sVsupposed
p2492
I1459
sVoutdoors
p2493
I714
sVelaborate
p2494
I3289
sVtoward
p2495
I1912
sVinteractive
p2496
I1353
sVmotivation
p2497
I3237
sVexercing
p2498
I2887
sVoutstanding
p2499
I2103
sVwasnt
p2500
I3028
sVfights
p2501
I2003
sVages
p2502
I907
sVrainforest
p2503
I3777
sVbasicly
p2504
I2145
sVcontrary
p2505
I3990
sVselling
p2506
I1911
sValike
p2507
I3982
sVorders
p2508
I2699
sVsell
p2509
I1106
sVlie
p2510
I1637
sVnights
p2511
I3983
sVbuilt
p2512
I1460
sVdepending
p2513
I2220
sVself
p2514
I992
sVofficers
p2515
I3029
sVespecialy
p2516
I3780
sVcouch
p2517
I1186
sVmajority
p2518
I1156
sVcosts
p2519
I1210
sVbuild
p2520
I908
sVsomtimes
p2521
I2909
sVfinding
p2522
I665
sVgym
p2523
I826
sVwithour
p2524
I3942
sVfolders
p2525
I2428
sVplay
p2526
I146
sVtowards
p2527
I1796
sVelectric
p2528
I2486
sVmoms
p2529
I3919
sVquote
p2530
I2621
sVvictim
p2531
I2168
sVreach
p2532
I1270
sVchart
p2533
I2221
sVreact
p2534
I2487
sVmost
p2535
I132
sVvirus
p2536
I1077
sVexperiences
p2537
I2041
sVplan
p2538
I748
sVcmputer
p2539
I3553
sVnothing
p2540
I371
sVextremely
p2541
I687
sVexersising
p2542
I2910
sV@percent
p2543
I131
sVdealers
p2544
I3984
sVwindows
p2545
I3985
sVclear
p2546
I1570
sVsometimes
p2547
I327
sVcover
p2548
I3402
sVluckily
p2549
I2782
sVconvient
p2550
I1990
sVclean
p2551
I1295
sVweigh
p2552
I2700
sVusual
p2553
I3273
sVmicrosoft
p2554
I1326
sVlying
p2555
I3986
sVjoining
p2556
I3782
sVfone
p2557
I3987
sVcelebrities
p2558
I3032
sVregisters
p2559
I3583
sVbusinesses
p2560
I1258
sVnewest
p2561
I1890
sVhopped
p2562
I3783
sVsweaty
p2563
I3435
sVfine
p2564
I790
sVfind
p2565
I115
sVcosting
p2566
I3239
sVimpact
p2567
I612
sVcell
p2568
I756
sVgiant
p2569
I2222
sVdepended
p2570
I3784
sVconvinced
p2571
I2783
sVruin
p2572
I1055
sVwriter
p2573
I1881
sVexersise
p2574
I938
sVstarters
p2575
I2784
sVfailed
p2576
I2146
sVflights
p2577
I2623
sVexperiment
p2578
I3611
sVsurveyed
p2579
I1566
sVpretty
p2580
I840
sVfactor
p2581
I1763
sVdiscuss
p2582
I2605
sVvocab
p2583
I3399
sVablity
p2584
I3954
sVhis
p2585
I250
sVhit
p2586
I982
sVaccross
p2587
I3748
sVdependent
p2588
I1484
sVconnections
p2589
I1417
sVexpress
p2590
I2223
sVsunny
p2591
I1693
sVgrocery
p2592
I3027
sVtrees
p2593
I754
sVcheaper
p2594
I1585
sVfamous
p2595
I866
sVfeels
p2596
I2183
sVvaluable
p2597
I808
sVtheft
p2598
I2429
sVinternational
p2599
I2405
sVhomeworks
p2600
I2184
sVduring
p2601
I765
sVsnowing
p2602
I2828
sVworkouts
p2603
I3035
sVhim
p2604
I402
sVdistraction
p2605
I1378
sVcatches
p2606
I3584
sVgenerally
p2607
I1928
sVefficiant
p2608
I2701
sVdoubled
p2609
I3786
sVbanking
p2610
I3406
sVstored
p2611
I3840
sVcommon
p2612
I909
sVactivity
p2613
I876
sVwrote
p2614
I1601
sVrestaurants
p2615
I3788
sVset
p2616
I730
sVart
p2617
I1971
sVluxury
p2618
I3492
sVcreator
p2619
I3787
sVthrowing
p2620
I3036
sVintelligence
p2621
I2785
sVbrake
p2622
I2593
sVsex
p2623
I2324
sVculture
p2624
I766
sVsee
p2625
I92
sVindividual
p2626
I2431
sVsec
p2627
I2912
sVare
p2628
I18
sVsea
p2629
I3407
sVclose
p2630
I591
sVnations
p2631
I2284
sVarm
p2632
I2635
sVobeseity
p2633
I2913
sV#
p2634
I2147
sVlearns
p2635
I3241
sVthreats
p2636
I2786
sVdesigned
p2637
I2473
sVexpert
p2638
I1056
sVuseing
p2639
I1169
sVmovie
p2640
I894
sVwow
p2641
I2624
sVcurrently
p2642
I2325
sVplease
p2643
I554
sVheading
p2644
I3302
sVlibraries
p2645
I2266
sVcase
p2646
I1104
sVfans
p2647
I2702
sVwon
p2648
I1567
sVvarious
p2649
I1271
sVbenefiting
p2650
I1372
sVbenfits
p2651
I3127
sVprobably
p2652
I391
sVburned
p2653
I3789
sVamarica
p2654
I3451
sVbirds
p2655
I1899
sVthrive
p2656
I3408
sVrisks
p2657
I1678
sVavailable
p2658
I1274
sVrecently
p2659
I653
sVcreating
p2660
I2104
sVmissing
p2661
I736
sVsold
p2662
I3242
sVattention
p2663
I660
sVarms
p2664
I3661
sVsucceed
p2665
I2488
sVcoffee
p2666
I3409
sVbecous
p2667
I3941
sVrelying
p2668
I2489
sVboth
p2669
I592
sVc
p2670
I3638
sVenables
p2671
I1926
sVlast
p2672
I237
sVsenery
p2673
I3551
sVrestaurant
p2674
I2703
sVbarely
p2675
I1546
sVforeign
p2676
I782
sVconnection
p2677
I1327
sVbecame
p2678
I934
sValow
p2679
I3128
sValot
p2680
I298
sVoovoo
p2681
I1943
sVgoverment
p2682
I2327
sVfocused
p2683
I1446
sVwhole
p2684
I383
sVfinds
p2685
I2490
sVload
p2686
I2148
sVliked
p2687
I3037
sVconsume
p2688
I2704
sVhackers
p2689
I2185
sVpoint
p2690
I464
sVsimple
p2691
I555
sVsky
p2692
I3275
sVcommunity
p2693
I798
sVpepol
p2694
I3926
sVnewborn
p2695
I3794
sVfashion
p2696
I2092
sVsimply
p2697
I605
sVlikes
p2698
I1107
sS'<num>'
p2699
I2
sVadresses
p2700
I2992
sVexpensive
p2701
I829
sVheadaches
p2702
I2432
sVdecline
p2703
I2267
sVconsuming
p2704
I1260
sVfrinds
p2705
I3412
sVraise
p2706
I2433
sVcreate
p2707
I666
sVdue
p2708
I508
sVearthquake
p2709
I977
sVhitting
p2710
I2915
sVwhom
p2711
I1047
sVbuisness
p2712
I737
sVcanser
p2713
I2916
sVcollected
p2714
I3588
sVsoftwares
p2715
I2206
sVmeeting
p2716
I783
sVwoke
p2717
I3994
sVpm
p2718
I2491
sVsiting
p2719
I2268
sVlived
p2720
I1499
sVflight
p2721
I1296
sVboy
p2722
I1299
sVfire
p2723
I1882
sVchatted
p2724
I3129
sVmentaly
p2725
I3589
sVgas
p2726
I1023
sVthatn
p2727
I2917
sVelse
p2728
I439
sVfund
p2729
I2551
sVmoderation
p2730
I1430
sVlives
p2731
I203
sVdemand
p2732
I3243
sVprices
p2733
I1944
sVtowns
p2734
I2004
sVwash
p2735
I3303
sVhonest
p2736
I2606
sVplants
p2737
I1506
sVforty
p2738
I3483
sVhighest
p2739
I2807
sVstolen
p2740
I1421
sVlook
p2741
I140
sVstraight
p2742
I1212
sVbill
p2743
I614
sVsmile
p2744
I2890
sVforgetting
p2745
I2241
sVwhile
p2746
I232
sVreplaced
p2747
I2705
sVhomework
p2748
I176
sVimpacted
p2749
I2862
sVfun
p2750
I158
sVanimated
p2751
I3590
sVnatures
p2752
I2829
sVtheres
p2753
I778
sVswim
p2754
I2005
sVthoes
p2755
I3996
sVexpierence
p2756
I3074
sVhoping
p2757
I2918
sVcalculator
p2758
I2006
sVstations
p2759
I2692
sVreads
p2760
I3038
sVitself
p2761
I1586
sVskype
p2762
I1017
sVready
p2763
I1147
sVrid
p2764
I1049
sVfunny
p2765
I1170
sVaroung
p2766
I3371
sVanymore
p2767
I626
sVimprovement
p2768
I3411
sVcooridination
p2769
I3413
sVrules
p2770
I3414
sVvirtually
p2771
I1765
sVpeoples
p2772
I425
sVproducts
p2773
I1799
sVadvise
p2774
I2787
sVhigher
p2775
I1129
sVdevelopment
p2776
I3130
sVused
p2777
I181
sVlawyers
p2778
I3594
sVtower
p2779
I3217
sVmountain
p2780
I3244
sVkeys
p2781
I1304
sVassignment
p2782
I1024
sVoverweight
p2783
I670
sVyesterday
p2784
I1826
sValert
p2785
I2552
sVmoment
p2786
I1827
sVlevels
p2787
I2908
sVmoving
p2788
I745
sVuser
p2789
I948
sVnecessity
p2790
I1694
sVclimb
p2791
I3807
sVrecent
p2792
I569
sVlacrosse
p2793
I3131
sVearly
p2794
I1907
sVlower
p2795
I1272
sVtask
p2796
I1157
sVbonds
p2797
I2362
sVolder
p2798
I868
sVpeople.
p2799
I3245
sVanybody
p2800
I1028
sVobviously
p2801
I1500
sVperson
p2802
I162
sVcheer
p2803
I2788
sVmachinery
p2804
I3997
sVorganization
p2805
I2285
sVspend
p2806
I118
sVknow
p2807
I71
sVsims
p2808
I3415
sVdistances
p2809
I3039
sVabilities
p2810
I1855
sVmom
p2811
I416
sVobserved
p2812
I3503
sVup-to-date
p2813
I2799
sVnit
p2814
I3511
sVisolated
p2815
I3132
sVdistracting
p2816
I1187
sVshape
p2817
I1057
sVquestions
p2818
I726
sVusing
p2819
I135
sVlove
p2820
I385
sValternative
p2821
I2434
sVcontinent
p2822
I3999
sVletting
p2823
I1058
sVtables
p2824
I3246
sVcut
p2825
I663
sValso
p2826
I43
sVhated
p2827
I3798
sVworkers
p2828
I935
sVadvertisements
p2829
I2007
sVexercising
p2830
I243
sVsource
p2831
I477
sVsubjects
p2832
I1784
sVparents
p2833
I288
sVlocation
p2834
I1766
sVpresidents
p2835
I3809
sVsnap
p2836
I3133
sVschoolwork
p2837
I1568
sVexcited
p2838
I2225
sVsurprised
p2839
I2149
sVuseless
p2840
I2620
sV...
p2841
I749
sVcustomers
p2842
I2493
sVwil
p2843
I3612
sVvictims
p2844
I2553
sVforces
p2845
I2967
sVemergency
p2846
I2008
sVbig
p2847
I277
sVcouple
p2848
I865
sVunlimited
p2849
I3247
sVjudgement
p2850
I2707
sVmatters
p2851
I2708
sVgame
p2852
I256
sVtruely
p2853
I2226
sVreal-life
p2854
I3740
sVcrisp
p2855
I2951
sVbit
p2856
I1004
sVprojects
p2857
I380
sVhelpful
p2858
I235
sVsuccess
p2859
I1913
sVedline
p2860
I3688
sVignorance
p2861
I3456
sVinnapropriate
p2862
I3597
sVignore
p2863
I1723
sVcommunications
p2864
I2329
sVharrased
p2865
I3622
sVcontinue
p2866
I752
sVpopular
p2867
I642
sVtechnologie
p2868
I2852
sVessential
p2869
I1068
sVgoogle
p2870
I540
sVoften
p2871
I478
sVabsolutely
p2872
I1588
sVpals
p2873
I2920
sVsuicides
p2874
I2602
sVsome
p2875
I81
sVback
p2876
I280
sVtrends
p2877
I3598
sVadded
p2878
I3238
sVpalm
p2879
I3420
sVexamples
p2880
I1230
sVsight
p2881
I850
sVkinda
p2882
I3280
sVcurious
p2883
I2921
sVserver
p2884
I3799
sVourselves
p2885
I1751
sVleaders
p2886
I2660
sVdelivered
p2887
I3600
sVand/or
p2888
I1618
sVcontacts
p2889
I2435
sVclosest
p2890
I3546
sVaffects
p2891
I740
sVdecision
p2892
I1025
sVpros
p2893
I1529
sVper
p2894
I1589
sVgateway
p2895
I3145
sVpen
p2896
I2227
sVcivilization
p2897
I3040
sVconnecting
p2898
I1515
sVeliminate
p2899
I2709
sVwares
p2900
I3442
sVdating
p2901
I1619
sVclosely
p2902
I3405
sVforgets
p2903
I3041
sVminimal
p2904
I3601
sVeither
p2905
I573
sVbe
p2906
I30
sVeating
p2907
I637
sVperformed
p2908
I3253
sVeffecting
p2909
I1476
sVconfidence
p2910
I2930
sVbu
p2911
I3421
sVstep
p2912
I867
sVnegatives
p2913
I3042
sVinfact
p2914
I3558
sVby
p2915
I97
sVwildlife
p2916
I2555
sVanything
p2917
I217
sVcompleting
p2918
I2494
sVfavor
p2919
I3269
sVdrama
p2920
I2075
sVrange
p2921
I2789
sVinvolving
p2922
I2968
sVmessaging
p2923
I578
sVlibery
p2924
I3422
sVconsequently
p2925
I3136
sVblock
p2926
I1638
sVarticals
p2927
I3875
sVseeing
p2928
I561
sVplenty
p2929
I1413
sVinto
p2930
I233
sVwithin
p2931
I902
sVservers
p2932
I3423
sVservices
p2933
I3781
sVappropriate
p2934
I2150
sVprimarily
p2935
I2922
sVinternets
p2936
I3368
sVlesson
p2937
I3137
sVchirping
p2938
I3424
sVstatistics
p2939
I1086
sVarcade
p2940
I3425
sVspending
p2941
I180
sVsmoothly
p2942
I3805
sVquestion
p2943
I482
sVfast
p2944
I393
sVeventhough
p2945
I2189
sVordered
p2946
I2382
sVthirdly
p2947
I1321
sVcamera
p2948
I1713
sVaddicting
p2949
I634
sVforward
p2950
I1661
sVbored
p2951
I506
sVanywere
p2952
I2520
sVscared
p2953
I2107
sVfiles
p2954
I1029
sVhimself
p2955
I2381
sVinvite
p2956
I1945
sVperduce
p2957
I3602
sVrelaxed
p2958
I2923
sVboys
p2959
I2076
sVproperly
p2960
I1798
sVlink
p2961
I1768
sValive
p2962
I3843
sVnewer
p2963
I3043
sVharming
p2964
I2746
sVline
p2965
I646
sVdull
p2966
I3044
sVraising
p2967
I3248
sVposted
p2968
I1620
sVinfo
p2969
I599
sVgeting
p2970
I1547
sVpeopel
p2971
I1914
sVup
p2972
I78
sVus
p2973
I93
sVur
p2974
I2330
sVplanet
p2975
I979
sVcams
p2976
I2286
sV're
p2977
I252
sVmature
p2978
I3426
sVrumors
p2979
I3070
sVok.
p2980
I2695
sVsimilar
p2981
I3045
sVcalled
p2982
I545
sVwell-known
p2983
I3022
sVyelled
p2984
I3428
sVbell
p2985
I2914
sVstoring
p2986
I2556
sVdevastating
p2987
I2246
sVconstant
p2988
I2077
sVadults
p2989
I281
sVlikewise
p2990
I2925
sVinfluence
p2991
I1322
sVbenfit
p2992
I2790
sVdoesn
p2993
I3604
sVunreasonable
p2994
I3581
sVdeprive
p2995
I2710
sVe-mails
p2996
I1213
sVsingle
p2997
I1188
sVcure
p2998
I2436
sVevening
p2999
I3020
sVchat
p3000
I159
sVthier
p3001
I668
sVgoign
p3002
I3605
sVrainy
p3003
I1856
sVnad
p3004
I3606
sVamounts
p3005
I1445
sVfixing
p3006
I2557
sVteams
p3007
I1949
sVpreventing
p3008
I1883
sVclicking
p3009
I1522
sVout-of-state
p3010
I3541
sVpoints
p3011
I1400
sVelectrical
p3012
I3607
sVpeopl
p3013
I2527
sVdepartment
p3014
I3046
sVaunt
p3015
I1494
sVactuly
p3016
I3429
sVnice
p3017
I474
sVexplaining
p3018
I3139
sVdraw
p3019
I1392
sVdevelope
p3020
I2792
sVusers
p3021
I727
sVbeatiful
p3022
I3140
sVproblems
p3023
I376
sVrobots
p3024
I2926
sVprepared
p3025
I2711
sVhelping
p3026
I523
sVmeaning
p3027
I1936
sVallowing
p3028
I1530
sVunwind
p3029
I3621
sVdouble
p3030
I3981
sVsides
p3031
I2137
sVconvinent
p3032
I2481
sVago
p3033
I693
sVland
p3034
I2558
sVhappier
p3035
I1130
sVpractically
p3036
I1915
sVage
p3037
I462
sVrequired
p3038
I1501
sVyoutube
p3039
I767
sVwalked
p3040
I2559
sVheath
p3041
I2627
sVscans
p3042
I3821
sVcarrying
p3043
I3438
sVunhealty
p3044
I3494
sVfar
p3045
I213
sVfresh
p3046
I547
sVrequires
p3047
I2043
sVhaving
p3048
I183
sVonce
p3049
I349
sVessay
p3050
I486
sVevidence
p3051
I3519
sVbroaden
p3052
I2560
sVlaziness
p3053
I2927
sVresults
p3054
I1214
sVwebchat
p3055
I2332
sVenjoyable
p3056
I1487
sVgroceries
p3057
I2437
sVgo
p3058
I49
sV@date
p3059
I246
sVcenters
p3060
I3431
sVissues
p3061
I793
sVseemed
p3062
I2151
sVconcerned
p3063
I662
sVyoung
p3064
I647
sVsend
p3065
I379
sVlanguages
p3066
I2794
sVover-weight
p3067
I3495
sVhelps
p3068
I205
sVpopularity
p3069
I3603
sVofficials
p3070
I3034
sVdislike
p3071
I3432
sVocmputer
p3072
I2561
sVfriendly
p3073
I1336
sVsent
p3074
I1012
sVstatics
p3075
I3433
sVbreathing
p3076
I2796
sVpersuade
p3077
I1838
sVreaserching
p3078
I3554
sVcontinues
p3079
I1695
sVconditions
p3080
I2625
sVfacebook
p3081
I200
sVintouch
p3082
I1973
sVfreind
p3083
I1769
sVtelling
p3084
I1178
sVpracticing
p3085
I2565
sVdrinking
p3086
I3249
sVentire
p3087
I1305
sVmagic
p3088
I3434
sVexperiencing
p3089
I2333
sVbutton
p3090
I768
sVf
p3091
I2712
sVguidance
p3092
I3497
sVexcessive
p3093
I2275
sVtry
p3094
I487
sVassignments
p3095
I972
sVrace
p3096
I1621
sVfasinating
p3097
I3644
sVobesity
p3098
I409
sVchallenge
p3099
I2377
sVopion
p3100
I2719
sVsmaller
p3101
I2105
sVjump
p3102
I1571
sVvideo
p3103
I247
sVtraveling
p3104
I1238
sVpicked
p3105
I2190
sVconcludes
p3106
I3251
sVdownload
p3107
I1027
sVclick
p3108
I449
sVdepression
p3109
I1059
sVfont
p3110
I3988
sVplays
p3111
I1916
sVbusiness
p3112
I484
sVgiving
p3113
I725
sVendlessly
p3114
I3989
sVreaching
p3115
I3646
sVnetworks
p3116
I1030
sVaccess
p3117
I544
sVpaying
p3118
I932
sVwaiting
p3119
I877
sVprinting
p3120
I3342
sVcapital
p3121
I2798
sVacually
p3122
I3050
sV;
p3123
I377
sVcoordinates
p3124
I3917
sVexercise
p3125
I155
sVbody
p3126
I472
sVled
p3127
I2563
sVchose
p3128
I1731
sVdegree
p3129
I1746
sVleg
p3130
I2928
sVpushing
p3131
I2496
sVcommercial
p3132
I2629
sVresearchers
p3133
I3403
sVgrowing
p3134
I855
sVexplore
p3135
I815
sVobjects
p3136
I2438
sVlet
p3137
I240
sVothers
p3138
I242
sVconsideration
p3139
I1216
sVsafer
p3140
I2078
sVinvented
p3141
I895
sVkidnapped
p3142
I1393
sVextreme
p3143
I3144
sVgreat
p3144
I124
sVdidn
p3145
I1614
sVreceive
p3146
I1485
sVinvolved
p3147
I1281
sVhastle
p3148
I2698
sVleaving
p3149
I878
sVsurvey
p3150
I969
sVsituations
p3151
I1464
sVopinion
p3152
I269
sVresidents
p3153
I2009
sVproof
p3154
I3808
sVmakes
p3155
I372
sVexcercise
p3156
I1543
sVinvolves
p3157
I1885
sVthats
p3158
I353
sVtunnel
p3159
I3148
sVnamed
p3160
I1590
sVapple
p3161
I2800
sVdanger
p3162
I925
sVpitch
p3163
I3632
sVwin
p3164
I1917
sVcharge
p3165
I2754
sVmanage
p3166
I1660
sVprivate
p3167
I1828
sVwih
p3168
I3048
sVaddressed
p3169
I3613
sVweaker
p3170
I2931
sVdecrease
p3171
I1516
sVnames
p3172
I1896
sVmotor
p3173
I2801
sVbuiness
p3174
I3725
sVapply
p3175
I3252
sVtools
p3176
I922
sVexcersize
p3177
I1093
sVdosent
p3178
I3049
sVstanding
p3179
I2334
sVuse
p3180
I50
sVfrom
p3181
I63
sVstream
p3182
I2883
sV&
p3183
I324
sVillegal
p3184
I1488
sVnext
p3185
I275
sVwebsit
p3186
I3146
sVfew
p3187
I407
sVdoubt
p3188
I939
sVface-to-face
p3189
I2335
sVthemselves
p3190
I629
sVhiding
p3191
I3466
sVdreams
p3192
I3085
sVchip
p3193
I3529
sVsort
p3194
I1273
sVpencil
p3195
I1770
sVsons
p3196
I3961
sVexsample
p3197
I3810
sVupcoming
p3198
I2229
sVstarted
p3199
I643
sVbecomes
p3200
I1112
sVabout
p3201
I37
sVtrain
p3202
I3147
sVbenifical
p3203
I2497
sVbaby
p3204
I1172
sVactual
p3205
I2044
sVstarter
p3206
I3614
sVwomen
p3207
I2269
sVaccount
p3208
I873
sVballs
p3209
I2564
sVanimals
p3210
I839
sVsoceity
p3211
I2407
sVthis
p3212
I35
sVthir
p3213
I2566
sVride
p3214
I998
sVclients
p3215
I2152
sVbenefitting
p3216
I2336
sVwaisting
p3217
I2045
sV@state
p3218
I2498
sVanywhere
p3219
I741
sVobvious
p3220
I2713
sVthin
p3221
I3440
sVuniverse
p3222
I2821
sVmeet
p3223
I335
sVdidnt
p3224
I1189
sVavoided
p3225
I2997
sVcontrol
p3226
I1046
sVdistractions
p3227
I1747
sVlinks
p3228
I1572
sVsnacks
p3229
I3149
sVprocess
p3230
I1431
sVlock
p3231
I1771
sVtax
p3232
I1974
sVpurposes
p3233
I1037
sVjunkfood
p3234
I3615
sVpieces
p3235
I1772
sVhigh
p3236
I583
sVprofessor
p3237
I2287
sVtag
p3238
I2271
sVpulling
p3239
I2191
sVsomething
p3240
I142
sVbones
p3241
I2439
sVvoice
p3242
I1556
sVrape
p3243
I3254
sVweaken
p3244
I3441
sVcrucial
p3245
I2195
sVinforming
p3246
I3950
sVeducational
p3247
I531
sVmemorize
p3248
I3255
sVsit
p3249
I345
sVdestroying
p3250
I1548
sVsix
p3251
I1603
sVfortunate
p3252
I3257
sVquizzes
p3253
I2361
sVforest
p3254
I1829
sVanimal
p3255
I2153
sVinstead
p3256
I173
sVintelligent
p3257
I2010
sVbanned
p3258
I2911
sVgreatly
p3259
I735
sVprofile
p3260
I1946
sVbuildings
p3261
I3150
sVscammed
p3262
I2932
sVattend
p3263
I2802
sVstop
p3264
I305
sVcordanation
p3265
I2046
sVbenifit
p3266
I516
sVabuse
p3267
I1092
sVevry
p3268
I3443
sVspelling
p3269
I1148
sVefficiently
p3270
I2011
sVrealized
p3271
I1173
sVot
p3272
I2767
sVlight
p3273
I891
sVbing
p3274
I2441
sVlines
p3275
I1830
sVrobot
p3276
I2337
sVhonestly
p3277
I1604
sVallow
p3278
I236
sVpyramids
p3279
I3444
sVaddiction
p3280
I587
sVswimming
p3281
I2630
sVfastest
p3282
I1854
sVavalible
p3283
I3051
sVholds
p3284
I2440
sVbeauties
p3285
I3259
sVcoordinated
p3286
I2463
sVconcideration
p3287
I2631
sVareas
p3288
I1663
sVmove
p3289
I572
sVincluding
p3290
I973
sVlooks
p3291
I1276
sVposotive
p3292
I1549
sVmentioned
p3293
I1226
sVbunch
p3294
I1354
sVperfect
p3295
I1013
sVhelicopters
p3296
I3619
sValway
p3297
I1846
sVchosen
p3298
I2933
sVemails
p3299
I833
sVwould'nt
p3300
I3151
sVwilling
p3301
I2079
sVchoose
p3302
I630
sV@time
p3303
I813
sVinstruments
p3304
I2934
sVamazed
p3305
I2689
sVintrested
p3306
I2970
sV<
p3307
I1947
sVdad
p3308
I615
sVexpirience
p3309
I3812
sVruined
p3310
I1738
sVcrash
p3311
I2500
sVgreater
p3312
I1462
sVsurrounds
p3313
I3620
sVpractice
p3314
I847
sVruns
p3315
I2167
sVship
p3316
I3545
sVmention
p3317
I1411
sVcutting
p3318
I2946
sVbothering
p3319
I3445
sVhands
p3320
I679
sVfront
p3321
I570
sVday
p3322
I101
sVstrive
p3323
I3813
sVarticles
p3324
I1163
sVomputers
p3325
I3755
sVedit
p3326
I2501
sVuniversity
p3327
I2632
sVscientest
p3328
I2936
sVslide
p3329
I3053
sVdoesnt
p3330
I1518
sVtruth
p3331
I1773
sVbreeze
p3332
I2034
sVrising
p3333
I2753
sVbills
p3334
I596
sVeaser
p3335
I3261
sVexperienced
p3336
I3599
sVglasses
p3337
I993
sVfare
p3338
I3616
sVrelize
p3339
I2430
sVdoing
p3340
I163
sVglobe
p3341
I1338
sVproduct
p3342
I2028
sVrelated
p3343
I1680
sVsociety
p3344
I107
sVjunkie
p3345
I3815
sVbooks
p3346
I317
sVour
p3347
I89
sVsexual
p3348
I2715
sVspecial
p3349
I1018
sVout
p3350
I62
sVyout
p3351
I3555
sV'
p3352
I359
sVentertainment
p3353
I450
sVsomethings
p3354
I2875
sVoccupied
p3355
I3106
sVstuf
p3356
I3472
sVrap
p3357
I3876
sVwich
p3358
I1447
sVelectronics
p3359
I958
sVcause
p3360
I286
sVconvinient
p3361
I3055
sVmath
p3362
I703
sVask.com
p3363
I3080
sVshut
p3364
I1329
sVdictionary
p3365
I1197
sVinteractions
p3366
I1550
sVipod
p3367
I1531
sVnephew
p3368
I3496
sVcompletely
p3369
I1394
sVect
p3370
I1448
sVsurely
p3371
I1379
sVvacations
p3372
I1317
sVsupose
p3373
I3475
sVscary
p3374
I1622
sVfrend
p3375
I2937
sVinteraction
p3376
I742
sVyard
p3377
I3153
sVprepare
p3378
I1707
sVsafty
p3379
I2047
sVcrashed
p3380
I1960
sVconcerns
p3381
I2716
sVsteal
p3382
I2442
sVcould
p3383
I66
sVflorida
p3384
I2192
sVtimes
p3385
I432
sVconversation
p3386
I746
sVchicken
p3387
I2806
sVproduce
p3388
I2994
sVmeals
p3389
I3430
sVexplored
p3390
I3344
sVdeprives
p3391
I3818
sVmankind
p3392
I2066
sVexam
p3393
I3263
sVthere
p3394
I52
sVexersicing
p3395
I2725
sVpowerful
p3396
I1802
sVowned
p3397
I3446
sVstraining
p3398
I3447
sVimproving
p3399
I1449
sVowner
p3400
I2165
sVquality
p3401
I1279
sVowning
p3402
I2081
sVreread
p3403
I3501
sVhas
p3404
I103
sVancient
p3405
I2082
sVsadly
p3406
I2443
sVfair
p3407
I2516
sVprivacy
p3408
I1955
sVordering
p3409
I2340
sVguys
p3410
I1815
sVmyspace
p3411
I350
sVsystem
p3412
I1014
sVrelations
p3413
I2633
sVeighth
p3414
I3915
sVpriority
p3415
I2805
sVtheir
p3416
I48
sVattack
p3417
I1918
sVcertin
p3418
I3056
sVmessing
p3419
I2232
sVfinal
p3420
I553
sVprone
p3421
I2634
sVinterests
p3422
I2567
sVenforcement
p3423
I3448
sVstars
p3424
I2938
sVactivitys
p3425
I1450
sVpunish
p3426
I3057
sVcompleted
p3427
I3154
sVnobody
p3428
I1060
sVexpressing
p3429
I3752
sVenvironmental
p3430
I3822
sVvideogames
p3431
I3264
sVoverwhelming
p3432
I3058
sVherself
p3433
I3059
sVupdating
p3434
I3624
sVwaist
p3435
I1580
sVloved
p3436
I830
sVben
p3437
I3060
sVboring
p3438
I1095
sVbother
p3439
I1774
sVbed
p3440
I1919
sVlimiting
p3441
I1958
sVclaim
p3442
I3098
sVpatients
p3443
I3184
sVdefense
p3444
I3240
sVloves
p3445
I1517
sVvisited
p3446
I2444
sVnegatively
p3447
I1432
sVproviding
p3448
I3627
sVbeuty
p3449
I3823
sVbet
p3450
I1339
sVaquire
p3451
I3878
sVbeter
p3452
I3265
sVfalse
p3453
I1282
sVagian
p3454
I3468
sVp.s
p3455
I3628
sVteenagers
p3456
I575
sVcomfortable
p3457
I2233
sVhave
p3458
I22
sVneed
p3459
I84
sVclearly
p3460
I800
sVviewed
p3461
I3449
sVunderstant
p3462
I3796
sVdocuments
p3463
I1217
sVstating
p3464
I3998
sVmin
p3465
I1463
sVrecap
p3466
I2815
sVstudying
p3467
I940
sVprobly
p3468
I1887
sVneater
p3469
I1948
sVable
p3470
I186
sVparks
p3471
I2234
sVinstance
p3472
I949
sVrelatives
p3473
I627
sVcordination
p3474
I548
sVwhich
p3475
I210
sV@organization
p3476
I95
sVencyclopedia
p3477
I1800
sVtechniques
p3478
I2020
sVmedals
p3479
I3629
sVaccuracy
p3480
I3514
sVworldwide
p3481
I1888
sVthet
p3482
I2690
sVunless
p3483
I1233
sVbuissness
p3484
I2012
sVwho
p3485
I109
sVnatrual
p3486
I3268
sVharmful
p3487
I816
sVconnected
p3488
I802
sVdevice
p3489
I694
sVhighschool
p3490
I1857
sVwhy
p3491
I90
sVsocializing
p3492
I1140
sVcellphone
p3493
I1340
sVconsequences
p3494
I1595
sVeachother
p3495
I1803
sVvisiting
p3496
I1858
sVstronger
p3497
I1283
sVdisease
p3498
I1521
sVface
p3499
I357
sVlooked
p3500
I913
sVgraphs
p3501
I1831
sVlabtop
p3502
I1632
sVse
p3503
I2531
sVpictures
p3504
I312
sVskinny
p3505
I3824
sVnormally
p3506
I1306
sVfact
p3507
I390
sVchances
p3508
I1682
sVtext
p3509
I743
sVagreed
p3510
I2252
sVsupported
p3511
I3524
sVoverwhelmed
p3512
I3404
sVanyway
p3513
I1639
sVunbelievable
p3514
I3914
sVbring
p3515
I526
sVreference
p3516
I3775
sVplanning
p3517
I1532
sVbedroom
p3518
I1889
sVhealthcare
p3519
I3617
sVsoldiers
p3520
I1395
sVfear
p3521
I2459
sVagrees
p3522
I1007
sVdecade
p3523
I3452
sVstaff
p3524
I2717
sVpromote
p3525
I2257
sVbased
p3526
I1640
sVknowledge
p3527
I404
sVexcerise
p3528
I2084
sV(
p3529
I451
sVcontrols
p3530
I3825
sVshould
p3531
I112
sVbuttons
p3532
I2154
sVcontroll
p3533
I2718
sVunable
p3534
I2590
sVriding
p3535
I2341
sVbecasue
p3536
I2370
sVlocal
p3537
I206
sVhope
p3538
I306
sVmeant
p3539
I1697
sVpeolple
p3540
I2636
sVhandle
p3541
I2155
sVlistened
p3542
I3453
sVmeans
p3543
I536
sVfellow
p3544
I1937
sVfamiliar
p3545
I2570
sVexircise
p3546
I2809
sVoverall
p3547
I904
sVlucky
p3548
I1702
sVbear
p3549
I3826
sVacces
p3550
I2571
sVones
p3551
I499
sVwords
p3552
I550
sVwerent
p3553
I2637
sVcompute
p3554
I2344
sVchips
p3555
I2106
sVroutine
p3556
I3158
sVendless
p3557
I1099
sVdonate
p3558
I3790
sVcourse
p3559
I806
sVnumerous
p3560
I1972
sVexercizing
p3561
I3454
sVtaxes
p3562
I1141
sVcalling
p3563
I971
sVinfluenced
p3564
I2480
sVstuff
p3565
I333
sV@location
p3566
I99
sVshe
p3567
I193
sVwish
p3568
I1412
sVtunes
p3569
I3631
sVgrab
p3570
I1804
sVfixed
p3571
I1591
sVconduct
p3572
I3171
sVgenerations
p3573
I1859
sVview
p3574
I892
sVknowing
p3575
I861
sVrequirement
p3576
I2810
sVfreinds
p3577
I1318
sVnational
p3578
I2237
sVcruise
p3579
I3618
sVhumans
p3580
I651
sVwe
p3581
I51
sVdependant
p3582
I3450
sVdifrent
p3583
I2940
sVsimplier
p3584
I3717
sVcomputes
p3585
I2386
sVcomputer
p3586
I16
sVenhanced
p3587
I3156
sVskateboarding
p3588
I3455
sVbecaus
p3589
I3175
sVpacked
p3590
I2941
sVcloser
p3591
I834
sVinterview
p3592
I2161
sVinteracting
p3593
I360
sVchannels
p3594
I2836
sVtend
p3595
I974
sVowns
p3596
I3640
sVhe/she
p3597
I1844
sVstate
p3598
I488
sVclosed
p3599
I1605
sVhorrible
p3600
I950
sVstories
p3601
I1370
sVneither
p3602
I2639
sVexerise
p3603
I3811
sVemail
p3604
I292
sVbought
p3605
I1101
sVends
p3606
I2942
sVability
p3607
I296
sVopening
p3608
I3270
sVimportance
p3609
I2048
sVcompters
p3610
I2720
sVdeliver
p3611
I2721
sVvitamin
p3612
I2664
sVkicking
p3613
I3635
sVjob
p3614
I310
sVkey
p3615
I999
sVjog
p3616
I1860
sVgroup
p3617
I1593
sVprecious
p3618
I2049
sVobesety
p3619
I3806
sVphysicly
p3620
I2722
sVsuccesful
p3621
I3210
sVstaring
p3622
I884
sVharrassment
p3623
I2578
sVinstant
p3624
I387
sVlimits
p3625
I1341
sVcareer
p3626
I1716
sVinformational
p3627
I2158
sVtaking
p3628
I378
sVescape
p3629
I2748
sVminds
p3630
I962
sVtrips
p3631
I1544
sVetc
p3632
I503
sVadmit
p3633
I1641
sVatleast
p3634
I2099
sVstudys
p3635
I2640
sVpassing
p3636
I2724
sVotherwise
p3637
I1561
sVcomment
p3638
I1832
sVdetailed
p3639
I1996
sVco
p3640
I3457
sVconclude
p3641
I1218
sVwall
p3642
I2272
sVca
p3643
I251
sVdefenetly
p3644
I2886
sVenvironments
p3645
I3271
sVwalk
p3646
I495
sVcolledge
p3647
I2445
sVadding
p3648
I2597
sVlaugh
p3649
I2238
sVnews
p3650
I283
sVrespect
p3651
I1533
sVpoeple
p3652
I1410
sVquit
p3653
I2641
sVdeffinetly
p3654
I3636
sVacts
p3655
I3916
sVaddition
p3656
I609
sVquiz
p3657
I1920
sVimmense
p3658
I3637
sVcreations
p3659
I2532
sVslowly
p3660
I1451
sVtreat
p3661
I2642
sVhottest
p3662
I3458
sVwaste
p3663
I418
sVtrend
p3664
I3196
sV>
p3665
I2013
sVcontribute
p3666
I1698
sVcontrolled
p3667
I3063
sVam
p3668
I249
sVclimate
p3669
I3506
sVal
p3670
I2139
sVfinished
p3671
I1307
sVice
p3672
I3192
sVcramps
p3673
I2655
sVtecnology
p3674
I2374
sVimproved
p3675
I1131
sVexersizing
p3676
I1606
sVan
p3677
I91
sVdespite
p3678
I3877
sVpresent
p3679
I1198
sVhomes
p3680
I1122
sVmulti
p3681
I1664
sVcriminal
p3682
I3152
sValows
p3683
I3160
sVunlike
p3684
I1684
sVtypeing
p3685
I1642
sVoveruse
p3686
I2812
sVplain
p3687
I1950
sVharder
p3688
I1019
sVvalue
p3689
I3831
sVchoices
p3690
I1861
sVwill
p3691
I65
sVsuport
p3692
I3459
sVaccesible
p3693
I3460
sVfault
p3694
I1594
sVwild
p3695
I2273
sVwile
p3696
I2813
sVhandwriting
p3697
I959
sVinstantly
p3698
I1010
sVdiscoveries
p3699
I2156
sVat
p3700
I67
sVsnack
p3701
I2525
sVlayer
p3702
I2814
sVhand-eye
p3703
I172
sVplanets
p3704
I2420
sVmanually
p3705
I3161
sValmost
p3706
I319
sVthus
p3707
I1164
sVsite
p3708
I684
sVhelped
p3709
I538
sVgirlfriend
p3710
I3120
sVdrasticly
p3711
I3834
sVwatched
p3712
I2540
sVcoumputors
p3713
I2944
sVsits
p3714
I2573
sVbegining
p3715
I3836
sVshooting
p3716
I2240
sVcomputeres
p3717
I3461
sV)
p3718
I398
sVbegan
p3719
I1921
sVradiation
p3720
I2274
sVmember
p3721
I817
sVmatches
p3722
I3346
sVparts
p3723
I933
sVconversations
p3724
I1524
sVparty
p3725
I1342
sVgets
p3726
I602
sVgrasp
p3727
I3953
sVdifficult
p3728
I818
sVinjured
p3729
I3162
sVcellphones
p3730
I1371
sVball
p3731
I807
sVscams
p3732
I3410
sVemotionally
p3733
I3463
sVforgotten
p3734
I2378
sVdisagree
p3735
I622
sVeffect
p3736
I120
sVbullying
p3737
I831
sVpresentations
p3738
I1848
sVstudent
p3739
I468
sVinfinite
p3740
I2574
sVfrequently
p3741
I1805
sVtoll
p3742
I2346
sVexpand
p3743
I1284
sVdiabetes
p3744
I1712
sVoff
p3745
I202
sVcenter
p3746
I3163
sVfmaily
p3747
I3900
sVrecords
p3748
I2303
sVi
p3749
I19
sVincredible
p3750
I2505
sVwell
p3751
I154
sVfighting
p3752
I1685
sVthought
p3753
I565
sVenglish
p3754
I1863
sVfirstly
p3755
I1165
sVposition
p3756
I1833
sVmuscle
p3757
I2726
sVdrawing
p3758
I2575
sVlatest
p3759
I1005
sVupgraded
p3760
I3793
sVstores
p3761
I857
sVless
p3762
I167
sVmoments
p3763
I2948
sVaccurate
p3764
I1397
sVobtain
p3765
I2276
sVdose
p3766
I1504
sVsources
p3767
I1036
sVmistakes
p3768
I1643
sVdistant
p3769
I841
sVrooms
p3770
I789
sVprotecting
p3771
I3586
sVskill
p3772
I621
sVglue
p3773
I2949
sVcoordination
p3774
I151
sVwether
p3775
I1261
sVweb
p3776
I358
sVexcersing
p3777
I1806
sVads
p3778
I2085
sVopinon
p3779
I3642
sVsupply
p3780
I2817
sVlogged
p3781
I2050
sVlake
p3782
I3164
sVcapabilities
p3783
I3276
sVhandy
p3784
I903
sVreasons
p3785
I187
sVadd
p3786
I910
sVother
p3787
I85
sVcitizen
p3788
I2446
sVusage
p3789
I702
sVearthquakes
p3790
I2818
sVsmart
p3791
I980
sVboom
p3792
I2819
sVtests
p3793
I1308
sVincreased
p3794
I1142
sVgovernment
p3795
I1776
sVchecking
p3796
I1038
sVincreases
p3797
I1777
sVwright
p3798
I3925
sVfive
p3799
I852
sVwhatever
p3800
I886
sVdesk
p3801
I1330
sVpress
p3802
I1608
sVimmediately
p3803
I3065
sVpassword
p3804
I3464
sVexellent
p3805
I2342
sVdevises
p3806
I3066
sVprobally
p3807
I2186
sVloss
p3808
I1343
sVflys
p3809
I3853
sVlazyness
p3810
I2447
sVnecessary
p3811
I951
sVlike
p3812
I56
sVlost
p3813
I458
sVsizes
p3814
I3643
sVchairs
p3815
I2014
sVadmitted
p3816
I3842
sVheed
p3817
I2727
sVlose
p3818
I424
sVbecome
p3819
I234
sVworks
p3820
I981
sVpage
p3821
I685
sVwonders
p3822
I1609
sVpoor
p3823
I1623
sVbecause
p3824
I36
sVsociaty
p3825
I2820
sVchatrooms
p3826
I1864
sVtwitter
p3827
I628
sVsearching
p3828
I819
sVlibrary
p3829
I347
sVhair
p3830
I3844
sVgrowth
p3831
I3277
sVdebating
p3832
I3201
sVchoosing
p3833
I2952
sVproper
p3834
I1665
sVhome
p3835
I184
sVcancled
p3836
I3465
sVstuffy
p3837
I2626
sVhappens
p3838
I720
sVwoud
p3839
I2086
sVthroughout
p3840
I1259
sVvocabulary
p3841
I2541
sVlead
p3842
I546
sVliterally
p3843
I2157
sVavoid
p3844
I1891
sVhurricane
p3845
I3846
sVdisk
p3846
I3959
sVe-mail
p3847
I413
sVdoes
p3848
I219
sVhappend
p3849
I1502
sVweighs
p3850
I3975
sV?
p3851
I69
sVlocate
p3852
I2503
sVstalkers
p3853
I3657
sVinaccurate
p3854
I3645
sVmouth
p3855
I2841
sVschedule
p3856
I1489
sVpressure
p3857
I2576
sVrecieving
p3858
I2728
sValthough
p3859
I566
sVcommputer
p3860
I2277
sVa.
p3861
I2314
sVsimpler
p3862
I1733
sVgained
p3863
I1433
sVsister
p3864
I923
sVlifestyle
p3865
I1039
sVputs
p3866
I1808
sVgetting
p3867
I182
sVfreedom
p3868
I2270
sVdeffinition
p3869
I3278
sVheaded
p3870
I3587
sVsweat
p3871
I3279
sVpersuaded
p3872
I2051
sVpowerpoint
p3873
I1666
sVbeign
p3874
I3647
sVsoftware
p3875
I1245
sVequally
p3876
I3648
sVown
p3877
I364
sVletters
p3878
I777
sVchildrens
p3879
I1951
sVkeeps
p3880
I728
sVpreviously
p3881
I2388
sVoportunity
p3882
I3649
sVbillions
p3883
I1952
sVincluded
p3884
I3224
sVweather
p3885
I535
sVtiny
p3886
I3687
sVartists
p3887
I2643
sVcyberbullied
p3888
I2824
sV.
p3889
I3
sVpointless
p3890
I2389
sVmere
p3891
I2577
sVgoogle.com
p3892
I3596
sVnetworking
p3893
I579
sVadolescent
p3894
I3848
sVrushed
p3895
I3849
sVmuseum
p3896
I3651
sVsociatey
p3897
I3850
sVapps
p3898
I2504
sVsecret
p3899
I3795
sVspots
p3900
I1778
sVnoticed
p3901
I1574
sVefficent
p3902
I2087
sVsyber
p3903
I3759
sVvaction
p3904
I2448
sVbiggest
p3905
I1123
sVgoin
p3906
I2730
sVnaturally
p3907
I3467
sVfunction
p3908
I1331
sVtricky
p3909
I3378
sVbuy
p3910
I352
sVbrowsing
p3911
I2665
sVchatting
p3912
I473
sVbus
p3913
I3851
sVbrand
p3914
I3852
sVbut
p3915
I44
sVreminds
p3916
I2239
sVhi
p3917
I2644
sVgain
p3918
I557
sVbeat
p3919
I2236
sVediting
p3920
I2729
sVeat
p3921
I517
sVhe
p3922
I171
sVcount
p3923
I1551
sVmade
p3924
I340
sVwise
p3925
I1836
sVplaces
p3926
I139
sVwhether
p3927
I489
sVdangerous
p3928
I410
sVcells
p3929
I1505
sVpolitics
p3930
I3955
sVdistract
p3931
I3281
sVrecord
p3932
I1865
sVcruel
p3933
I2645
sVconvince
p3934
I2345
sVlimit
p3935
I724
sVcake
p3936
I2822
sVproblem
p3937
I262
sVpiece
p3938
I905
sVminutes
p3939
I411
sVodds
p3940
I2773
sVmechanics
p3941
I3652
sVhealthiest
p3942
I3949
sVuniversal
p3943
I3653
sVfingertips
p3944
I1653
sVconsumed
p3945
I3427
sVbeats
p3946
I3068
sVtutors
p3947
I3007
sVperiods
p3948
I3165
sVwebpages
p3949
I2823
sVlikly
p3950
I1750
sVeducation
p3951
I361
sVipods
p3952
I3069
sVgirl
p3953
I906
sVeffected
p3954
I1892
sVspell
p3955
I1232
sVcompared
p3956
I1490
sV'll
p3957
I384
sVvariety
p3958
I1332
sVdeadly
p3959
I2015
sVpercent
p3960
I1199
sVdetail
p3961
I1837
sVvirtual
p3962
I1061
sVlately
p3963
I1699
sVeducationally
p3964
I2579
sVcyberspace
p3965
I3719
sVbook
p3966
I265
sVgossip
p3967
I3791
sVdetails
p3968
I1219
sVsick
p3969
I963
sVmass
p3970
I3379
sVclicks
p3971
I2506
sVcontacting
p3972
I2279
sVconclusion
p3973
I261
sVjunk
p3974
I1477
sVkinds
p3975
I914
sVrespected
p3976
I3547
sVwaves
p3977
I3389
sVworker
p3978
I2953
sVclass
p3979
I475
sVultimately
p3980
I3922
sVstay
p3981
I185
sVchance
p3982
I551
sVadditionally
p3983
I2646
sVenternet
p3984
I1717
sVfriends
p3985
I46
sVopened
p3986
I1787
sVsearches
p3987
I2954
sVbreaks
p3988
I3891
sVecofriendly
p3989
I3003
sVblogs
p3990
I2647
sVfactors
p3991
I2760
sVusefull
p3992
I1434
sVcarrer
p3993
I3874
sVgardens
p3994
I3469
sVcraft
p3995
I3884
sVsearched
p3996
I2316
sVunderstand
p3997
I392
sVyell
p3998
I3166
sVaccidents
p3999
I3167
sVconfess
p4000
I3168
s.