(dp0
Vlimited
p1
I1209
sVwritings
p2
I2226
sVtodays
p3
I854
sVchildern
p4
I774
sVwomans
p5
I3755
sVchild
p6
I112
sVsincerly
p7
I3028
sVfoul
p8
I830
sVfour
p9
I1520
sVprotest
p10
I1623
sVsleep
p11
I1994
sVcontroversial
p12
I1153
sVhanging
p13
I2738
sVconsists
p14
I2951
sVoldest
p15
I3340
sVhate
p16
I827
sVtowns
p17
I2484
sVforget
p18
I1104
sVrelationships
p19
I3525
sVoffenses
p20
I2598
sVattracted
p21
I3737
sVwhosoever
p22
I3977
sVseriously
p23
I1402
sVwizardry
p24
I2739
sVendings
p25
I2838
sVoriginality
p26
I3859
sVvoted
p27
I2282
sVoffensed
p28
I3877
sVunder
p29
I408
sVoffincive
p30
I3175
sVteaching
p31
I1078
sVimmature
p32
I1659
sVworth
p33
I1021
sVapplied
p34
I2856
sVupdated
p35
I2438
sVsaves
p36
I3523
sVshielding
p37
I3860
sVrisk
p38
I1294
sVdescisions
p39
I3839
sVrise
p40
I2667
sVhorrified
p41
I3776
sVdefinetly
p42
I3088
sVevery
p43
I167
sV'all
p44
I718
sVaffect
p45
I729
sVmonth
p46
I3427
sVbringing
p47
I1660
sVvast
p48
I1802
sVbelieved
p49
I1762
sVschool
p50
I166
sVbasics
p51
I2436
sVprize
p52
I3176
sVprogression
p53
I3341
sVskills
p54
I2599
sVsupports
p55
I3603
sVregaurdless
p56
I2515
sVshlef
p57
I2952
sVcompanies
p58
I1803
sVsolution
p59
I838
sVcenshorship
p60
I3082
sVhappenings
p61
I2879
sVimplanting
p62
I3861
sVnigger
p63
I2839
sVhonor
p64
I3048
sVjoke
p65
I1429
sVshouting
p66
I3918
sVinformative
p67
I2680
sVdiversity
p68
I1797
sVmurders
p69
I2968
sVups
p70
I2138
sVclothes
p71
I1708
sVenjoy
p72
I238
sVforce
p73
I1954
sVleaders
p74
I2142
sVtired
p75
I2227
sVphones
p76
I2516
sVguidelines
p77
I2668
sVrequest
p78
I1839
sVassure
p79
I3062
sVreson
p80
I1767
sVlikely
p81
I437
sVstreet
p82
I1806
sVair
p83
I2530
sVeven
p84
I118
sVerrors
p85
I3863
sVhide
p86
I659
sVpreferences
p87
I2139
sVreligious
p88
I806
sVselected
p89
I2670
sVrevolves
p90
I3686
sVfingers
p91
I3864
sVliberty
p92
I1995
sVreasoning
p93
I1768
sVect..
p94
I1996
sVabove
p95
I998
sVnew
p96
I294
sVtips
p97
I2600
sVpoorly
p98
I3071
sVever
p99
I223
sVanywere
p100
I3934
sVtold
p101
I476
sVshure
p102
I3858
sVdeemed
p103
I904
sVgota
p104
I2991
sVhero
p105
I2740
sVintrest
p106
I1237
sVwhose
p107
I2896
sVjoin
p108
I3577
sVnever
p109
I196
sVbrainwashed
p110
I3868
sVhere
p111
I435
sVhundreds
p112
I1342
sVreported
p113
I2228
sVprotection
p114
I2283
sVactive
p115
I2953
sVpath
p116
I1997
sVtherfore
p117
I3410
sVinterpret
p118
I2954
sVobtained
p119
I2517
sVkids
p120
I85
sVdaughter
p121
I1269
sVitems
p122
I291
sVstudy
p123
I1035
sVchanged
p124
I782
sVreports
p125
I2741
sVcontroversy
p126
I1221
sVcredit
p127
I2955
sVmenu
p128
I3870
sVsmoke
p129
I2841
sVbrowsing
p130
I3561
sVmilitary
p131
I3177
sVsuitable
p132
I758
sVchanges
p133
I1502
sVpunishment
p134
I3073
sVfell
p135
I2983
sVcriticism
p136
I3872
sVappropriately
p137
I3873
sVswearing
p138
I1846
sVwheather
p139
I1471
sVsecluded
p140
I3277
sVexplained
p141
I1876
sVphrase
p142
I2908
sVfeelings
p143
I589
sVbrought
p144
I950
sVtheirself
p145
I3528
sVmoral
p146
I1549
sVglance
p147
I2518
sVtotal
p148
I1684
sVunit
p149
I3874
sVplot
p150
I2086
sVspoke
p151
I2437
sVwould
p152
I34
sVbrowse
p153
I3179
sVhospital
p154
I3689
sVachieve
p155
I2940
sVnegative
p156
I669
sVinsult
p157
I1917
sVchoosen
p158
I3343
sVdescriminating
p159
I3690
sVmusic
p160
I57
sVtherefore
p161
I389
sVrecommend
p162
I3529
sVsurvive
p163
I2956
sVtype
p164
I247
sVtell
p165
I228
sVbecouse
p166
I3344
sVdecisons
p167
I3530
sVplayboy
p168
I3875
sVfemales
p169
I3876
sVholy
p170
I3878
sVrelax
p171
I1175
sVsuccessful
p172
I2230
sVbrings
p173
I1055
sVexpose
p174
I1481
sVwars
p175
I1238
sVammount
p176
I3345
sVhurt
p177
I454
sVwarn
p178
I1804
sVphone
p179
I3074
sVwarm
p180
I3531
sVadult
p181
I195
sVsiblings
p182
I2212
sVhole
p183
I2742
sVhold
p184
I654
sVsorry
p185
I1953
sVorigin
p186
I3740
sVmust
p187
I390
sVme
p188
I136
sVshelvs
p189
I3955
sVmorally
p190
I1877
sVword
p191
I337
sVroom
p192
I547
sVrights
p193
I501
sVpursue
p194
I3180
sVwork
p195
I241
sV'clean
p196
I3346
sVentertained
p197
I2148
sVpeolpe
p198
I1644
sVmovies
p199
I56
sVera
p200
I2088
sVmagzine
p201
I2519
sVshelve
p202
I831
sVmy
p203
I73
sVcussing
p204
I967
sValowed
p205
I2385
sVlibraray
p206
I3901
sV'hey
p207
I2880
sVgive
p208
I308
sVunjust
p209
I1521
sVhousehold
p210
I3880
sVorganized
p211
I1581
sVinappropiate
p212
I951
sVdragons
p213
I3881
sVinvolve
p214
I1760
sVcaution
p215
I2439
sVwant
p216
I64
sVkeep
p217
I176
sVattract
p218
I3076
sVabsolute
p219
I3181
sVend
p220
I459
sVthing
p221
I137
sVcomplaining
p222
I1013
sVlibaries
p223
I889
sVtravel
p224
I2743
sVsitting
p225
I1557
sVdamage
p226
I1879
sVhow
p227
I120
sVamazing
p228
I1130
sVwriters
p229
I660
sVoffenseive
p230
I3538
sVhop
p231
I2745
sVsignificance
p232
I3883
sVanswer
p233
I568
sVordinary
p234
I2843
sVmassive
p235
I3979
sVlisen
p236
I3347
sVbadly
p237
I1847
sVuntill
p238
I1955
sVsupplied
p239
I3546
sVdescription
p240
I2386
sVbeauty
p241
I2746
sVslavory
p242
I3532
sVmess
p243
I1725
sVoppions
p244
I3348
sVafter
p245
I400
sVdamaged
p246
I3208
sVcustoms
p247
I3349
sVwrong
p248
I178
sVlay
p249
I2844
sVcuriosity
p250
I2140
sVpresident
p251
I1805
sVlaw
p252
I701
sVtypes
p253
I271
sVpurchase
p254
I1239
sVattempt
p255
I1382
sVthird
p256
I1162
sVwins
p257
I3884
sVappreciate
p258
I1685
sVfictional
p259
I2037
sVchildhood
p260
I2013
sVcigarettes
p261
I3885
sVenter
p262
I1108
sValoud
p263
I578
sVfan
p264
I2021
sVconsored
p265
I3407
sVorder
p266
I702
sVwind
p267
I3183
sVrestriction
p268
I1661
sVmabey
p269
I3184
sVoffice
p270
I2520
sVwelcomed
p271
I2747
sVconsent
p272
I1686
sVover
p273
I201
sVsheltering
p274
I2141
sV'bad
p275
I1089
sVbecaus
p276
I2672
sVmisery
p277
I3692
sVguidance
p278
I3363
sVyounge
p279
I2521
sVsuceed
p280
I3533
sVhip-hop
p281
I2387
sVbefore
p282
I301
sVsatisfied
p283
I2845
sVintertainment
p284
I3431
sVfit
p285
I1032
sVsomewhere
p286
I703
sVscreaming
p287
I2748
sVfix
p288
I1400
sVdiffrent
p289
I686
sV,
p290
I5
sVwriting
p291
I423
sVbetter
p292
I245
sVis'nt
p293
I3741
sVmatured
p294
I2749
sVdifferently
p295
I876
sVhidden
p296
I1145
sVpass
p297
I1458
sVeasier
p298
I859
sVovercome
p299
I1709
sVsplit
p300
I1918
sVversus
p301
I3350
sVthen
p302
I62
sVthem
p303
I44
sVaffected
p304
I1366
sVprevented
p305
I1726
sVsafe
p306
I607
sVbreak
p307
I1270
sVband
p308
I1271
sVmemorialize
p309
I3887
sVeffects
p310
I1085
sVthey
p311
I15
sVschools
p312
I429
sVover-rated
p313
I3888
sVtownship
p314
I3889
sVone
p315
I60
sVrental
p316
I2388
sVther
p317
I1317
sVrepresents
p318
I2440
sV'oh
p319
I2789
sVapporiate
p320
I2750
sVclassified
p321
I3351
sVslavery
p322
I655
sVgrows
p323
I2614
sVya
p324
I3419
sVreasonable
p325
I2522
sVeach
p326
I378
sVaddicted
p327
I2751
sVwent
p328
I490
sVside
p329
I562
sVcouldent
p330
I3890
sVmean
p331
I179
sVprohibit
p332
I2673
sVindependent
p333
I3372
sVseries
p334
I800
sVcrimes
p335
I1367
sVstronger
p336
I2830
sVcursewords
p337
I2523
sVchilden
p338
I3891
sVcarry
p339
I939
sVtaught
p340
I693
sVreached
p341
I3664
sVeightteen
p342
I3037
sVpublically
p343
I2961
sVsounds
p344
I1079
sVwonmen
p345
I3079
sVgon
p346
I943
sVdriving
p347
I1728
sVcencored
p348
I1816
sVrestricted
p349
I921
sVtales
p350
I2603
sVenviroment
p351
I2038
sVtolerated
p352
I3352
sVcontent
p353
I200
sVmethod
p354
I1896
sVencourage
p355
I1750
sVbanning
p356
I710
sVreader
p357
I346
sVgot
p358
I322
sVaccessible
p359
I3066
sVsize
p360
I2546
sVforth
p361
I2284
sVdisagreements
p362
I2089
sVlaunguage
p363
I3353
sVpresure
p364
I3924
sVturning
p365
I1625
sVhang
p366
I2531
sVthreatened
p367
I3186
sVlittle
p368
I186
sVfree
p369
I449
sVstandard
p370
I1601
sVromoved
p371
I1880
sVcarried
p372
I3171
sVstruggle
p373
I1626
sVdissability
p374
I3624
sVwanted
p375
I387
sVstorm
p376
I2913
sVuniversally
p377
I3187
sVpersonalities
p378
I1968
sVconform
p379
I3671
sVenormous
p380
I3896
sVexposing
p381
I2039
sVcreated
p382
I898
sVmagzines
p383
I1729
sVstarts
p384
I1240
sVprivacy
p385
I3491
sVmessages
p386
I1197
sVdays
p387
I374
sVabhor-then
p388
I1582
sVlocal
p389
I541
sVcreates
p390
I1778
sVmusicians
p391
I1522
sVoppose
p392
I2524
sVisn
p393
I3537
sVmoving
p394
I2027
sVdiffernt
p395
I1170
sVonto
p396
I1434
sValready
p397
I503
sVgrade
p398
I793
sVwast
p399
I2752
sVhearing
p400
I603
sVrestrict
p401
I1343
sVfantasy
p402
I1730
sVanother
p403
I160
sVwasn
p404
I3897
sVneighborhood
p405
I2163
sVcomic
p406
I2525
sVthrought
p407
I2382
sVolds
p408
I1663
sVrated
p409
I325
sVactivities
p410
I2020
sVpotty
p411
I3698
sVtop
p412
I1210
sVgirls
p413
I839
sVfiction
p414
I695
sVvarying
p415
I3722
sVneeded
p416
I538
sVcompromise
p417
I2847
sVtoo
p418
I193
sVworlds
p419
I1579
sVnewpapers
p420
I3354
sVranging
p421
I3190
sVdamaging
p422
I3355
sVlisten
p423
I151
sVurban
p424
I3699
sVmurder
p425
I1295
sVgrandchildren
p426
I3356
sVtool
p427
I1998
sVserve
p428
I2675
sVtook
p429
I391
sVrejected
p430
I1919
sVdirect
p431
I2669
sVsomewhat
p432
I1241
sVpracticed
p433
I2333
sVsomone
p434
I2326
sVsticker
p435
I3371
sVmessing
p436
I3665
sVtarget
p437
I1602
sVshowed
p438
I1751
sVsurrounding
p439
I2187
sVtree
p440
I3191
sVsecond
p441
I583
sVnations
p442
I2753
sVproject
p443
I927
sVmatter
p444
I224
sVclasses
p445
I1848
sVspeaking
p446
I1823
sVhistorical
p447
I1067
sVfeeling
p448
I970
sVsolely
p449
I2848
sVhaves
p450
I3357
sVfashion
p451
I2190
sVsees
p452
I960
sVcustmers
p453
I3903
sVran
p454
I2676
sVmodern
p455
I1287
sVmind
p456
I318
sVmine
p457
I1327
sVdeprived
p458
I3056
sVspent
p459
I2366
sVtalking
p460
I511
sVseed
p461
I3540
sVmanner
p462
I1603
sVrap
p463
I551
sVseen
p464
I296
sVseem
p465
I461
sVpicks
p466
I1119
sVseek
p467
I1808
sVtells
p468
I1131
sVcontents
p469
I999
sVbeause
p470
I3542
sVinfringed
p471
I3862
sVforced
p472
I1068
sVponder
p473
I2526
sVmoniter
p474
I3685
sVmedias
p475
I3592
sVthoroughly
p476
I3702
sVlatter
p477
I3359
sVresponsible
p478
I917
sV-
p479
I1249
sVrealy
p480
I2849
sVrecommended
p481
I2754
sVsubjects
p482
I650
sVdoors
p483
I1401
sVpunish
p484
I2126
sVagressive
p485
I3904
sVbeleafs
p486
I3112
sVbeucase
p487
I2755
sVknowlege
p488
I2963
sVnobody
p489
I610
sVopinionative
p490
I3905
sVmemebers
p491
I3906
sVthough
p492
I274
sVrappers
p493
I1957
sVobject
p494
I1259
sVsue
p495
I3770
sVanatomy
p496
I2851
sVregular
p497
I2604
sVmouth
p498
I1753
sVensure
p499
I2402
sVplenty
p500
I1008
sVthriller
p501
I3192
sVattitude
p502
I2060
sVneccasary
p503
I3361
sVpeers
p504
I1731
sVdon
p505
I1809
sVobservation
p506
I1810
sVcops
p507
I3907
sVthemselfs
p508
I2958
sVmetal
p509
I2175
sVdog
p510
I2327
sVspend
p511
I1720
sVpoints
p512
I1038
sVdads
p513
I3711
sVsun
p514
I3771
sVlabraries
p515
I2043
sVdos
p516
I3545
sVentertaining
p517
I1296
sVconsumer
p518
I2964
sVsum
p519
I2023
sVcame
p520
I596
sVrenting
p521
I1779
sVsaying
p522
I262
sVbomb
p523
I3909
sVinspire
p524
I2193
sVlyrics
p525
I637
sVlabels
p526
I1983
sVsexist
p527
I2492
sVending
p528
I1811
sVreligions
p529
I873
sVcolors
p530
I3084
sVradio
p531
I521
sVsolutions
p532
I1565
sVstepping
p533
I3547
sVparticipate
p534
I3193
sVearth
p535
I1999
sVtempted
p536
I2756
sVenjoyed
p537
I887
sVlitature
p538
I2000
sVlessons
p539
I1146
sVtouches
p540
I3911
sVbusy
p541
I2442
sVmeny
p542
I2443
sVlights
p543
I3524
sVment
p544
I1355
sVsituations
p545
I731
sVexplain
p546
I629
sVillistrated
p547
I3195
sVhaven
p548
I3315
sVtheme
p549
I1664
sVjudged
p550
I2605
sVrich
p551
I3196
sVlibary
p552
I569
sVbeacause
p553
I2677
sV'no
p554
I1754
sVpersonality
p555
I2091
sVdo
p556
I29
sVsecurity
p557
I3379
sVcolorful
p558
I3549
sVetc.
p559
I388
sVsmut
p560
I2328
sVstop
p561
I279
sVgorey
p562
I2528
sVcriticized
p563
I3085
sVenters
p564
I3928
sVabsolutley
p565
I3563
sValtogether
p566
I1776
sVreport
p567
I1047
sVnasty
p568
I1184
sVbeleive
p569
I1036
sVmajorty
p570
I3913
sVunfortunately
p571
I2691
sVdeffinitly
p572
I2446
sVruns
p573
I2852
sVincreasing
p574
I3865
sVcountries
p575
I846
sVnicely
p576
I3198
sVhello
p577
I2256
sVguns
p578
I1573
sVtwice
p579
I2001
sVbad
p580
I114
sVban
p581
I587
sVshuld
p582
I2606
sVsteal
p583
I2287
sVears
p584
I1812
sVrespond
p585
I3200
sVethical
p586
I3552
sVdecides
p587
I1328
sVdisaster
p588
I2044
sVfair
p589
I379
sVoffinsive
p590
I1198
sVgenerally
p591
I2106
sVeveything
p592
I2962
sVextremly
p593
I3342
sVconvey
p594
I1389
sVrecieve
p595
I2002
sVchecks
p596
I1920
sVdepends
p597
I585
sVdecided
p598
I840
sVresult
p599
I1266
sVfail
p600
I2235
sVdisturbing
p601
I794
sVdiscriminating
p602
I2416
sVbest
p603
I333
sVsubject
p604
I403
sVsaid
p605
I211
sVcapacity
p606
I3704
sVthngs
p607
I3365
sVinappropriate
p608
I234
sVlots
p609
I894
sVaway
p610
I126
sVlisteners
p611
I1910
sVportrayed
p612
I2045
sVgrandmother
p613
I3060
sVprotected
p614
I1487
sVhumankind
p615
I3914
sVdiscovers
p616
I3705
sVhopefully
p617
I1503
sVdrawn
p618
I2093
sVsorts
p619
I1199
sVenlighten
p620
I3713
sVtolerance
p621
I3553
sVdiscovery
p622
I2195
sVdiscipline
p623
I3201
sVwe
p624
I36
sVmen
p625
I850
sVterms
p626
I1407
sVwa
p627
I2853
sVnature
p628
I1056
sVhe/she
p629
I1048
sVconfusion
p630
I3086
sVrestricting
p631
I1958
sVweak
p632
I2391
sVhowever
p633
I293
sVboss
p634
I1646
sVstripped
p635
I2253
sV'that
p636
I2607
sVadd
p637
I1992
sVwear
p638
I1566
sVcensorship
p639
I80
sVnews
p640
I748
sVpicking
p641
I905
sVsucess
p642
I3302
sVimprove
p643
I1849
sVfaced
p644
I2003
sVranges
p645
I3025
sVprotect
p646
I661
sVaccident
p647
I2236
sVgaurdians
p648
I3566
sVbrown
p649
I3387
sVmet
p650
I3526
sVoppinion
p651
I1109
sVfault
p652
I646
sVadventures
p653
I2237
sVagainst
p654
I411
sVplayers
p655
I3087
sVgames
p656
I529
sVmildly
p657
I3706
sVlookin
p658
I3202
sVlogic
p659
I2758
sVargue
p660
I880
sVasked
p661
I801
sVsuggest
p662
I1504
sVmortified
p663
I3915
sVtone
p664
I1864
sVofficials
p665
I3504
sVhad
p666
I171
sVirresponsible
p667
I2759
sVhers
p668
I3708
sVtons
p669
I1368
sVaffiliated
p670
I3869
sVpregnancy
p671
I3917
sVoblivious
p672
I2662
sVblonde
p673
I2444
sVtrust
p674
I2196
sVether
p675
I3555
sVhitler
p676
I3707
sVspeak
p677
I677
sVputs
p678
I1870
sVbasis
p679
I1813
sVfrist
p680
I2330
sVthree
p681
I742
sVbeen
p682
I181
sV.
p683
I3
sVbothers
p684
I1883
sVmuch
p685
I202
sVinterest
p686
I588
sVbasic
p687
I1814
sVexpected
p688
I2678
sVcollections
p689
I3930
sVthrew
p690
I1329
sVwebsite
p691
I2610
sVlife
p692
I140
sVfamilies
p693
I1185
sVeasy
p694
I769
sVrelaxing
p695
I3367
sVdrugs
p696
I260
sVaccidently
p697
I2570
sVconcerning
p698
I2855
sVwritting
p699
I1755
sVrasicm
p700
I3760
sVpersonally
p701
I452
sVcatch
p702
I1344
sVworked
p703
I1014
sVinapproite
p704
I2886
sVcensored
p705
I177
sVcensory
p706
I1851
sVexception
p707
I2611
sVhas
p708
I88
sVharms
p709
I3368
sVsuppost
p710
I2331
sVpublicly
p711
I2095
sVcensors
p712
I2393
sVtastes
p713
I1627
sVn
p714
I2197
sVnear
p715
I1330
sVdiffrently
p716
I3557
sVsuppose
p717
I855
sVteachers
p718
I869
sVapplies
p719
I1921
sVstopping
p720
I1391
sVaid
p721
I3369
sVvoice
p722
I1022
sVcensore
p723
I1732
sVleaves
p724
I2189
sVmistake
p725
I1318
sVremembering
p726
I3206
sVseven
p727
I2612
sVcons
p728
I3370
sVprovocative
p729
I2394
sVplayed
p730
I995
sVinnoproprate
p731
I3207
sVis
p732
I13
sVit
p733
I11
sVconditioned
p734
I3920
sVplayer
p735
I2445
sVcant
p736
I508
sVeighteen
p737
I1223
sVim
p738
I495
sVbrutal
p739
I3255
sVin
p740
I14
sVhappening
p741
I744
sVgaming
p742
I3182
sVdisappear
p743
I3560
sVif
p744
I25
sVgrown
p745
I961
sVcontaining
p746
I1049
sVpermition
p747
I3921
sValdults
p748
I3709
sVthings
p749
I49
sVmake
p750
I123
sVintresting
p751
I2223
sVbeside
p752
I3710
sVpotentially
p753
I1710
sVsheltered
p754
I1319
sVbabies
p755
I1756
sVvolgure
p756
I2289
sVinnappropriate
p757
I1010
sVunrated
p758
I2561
sVseveral
p759
I1138
sVnaive
p760
I3691
sVcouple
p761
I688
sVentitled
p762
I1002
sVfairly
p763
I2760
sVmateral
p764
I2332
sVpublished
p765
I964
sV@month
p766
I78
sVevil
p767
I2290
sVhand
p768
I484
sVbeacuase
p769
I2761
sVafraid
p770
I1748
sVsometing
p771
I2858
sVscale
p772
I3043
sVcharacters
p773
I1137
sVpositives
p774
I3089
sVopportunity
p775
I1100
sVblamed
p776
I2859
sVthoughts
p777
I428
sVkid
p778
I232
sVkept
p779
I534
sVscenario
p780
I3700
sVprograms
p781
I3562
sVfailing
p782
I2969
sVchilren
p783
I2711
sVcontroled
p784
I3871
sVtho
p785
I3375
sVcontact
p786
I1320
sVgreatest
p787
I1171
sVqualities
p788
I2970
sVmother
p789
I552
sVleason
p790
I3376
sVhearts
p791
I2006
sVthe
p792
I4
sVcamps
p793
I2860
sVyours
p794
I1483
sVtha
p795
I2861
sVleft
p796
I199
sVopinions
p797
I268
sVtaunting
p798
I3926
sVappease
p799
I3712
sVbirth
p800
I1757
sVjust
p801
I52
sVsentence
p802
I1960
sVyea
p803
I2971
sVunfair
p804
I730
sV@caps
p805
I27
sVsomethings
p806
I918
sVassigned
p807
I1815
sVgrades
p808
I2007
sVgrader
p809
I2198
sVidentify
p810
I3564
sVthanks
p811
I2532
sVhuman
p812
I570
sVfacts
p813
I743
sVyes
p814
I281
sVyet
p815
I455
sVprevious
p816
I2238
sVshoud
p817
I1466
sVposes
p818
I2533
sVmonitored
p819
I2008
sVease
p820
I2447
sVcharacter
p821
I962
sVgrafic
p822
I3929
sVwright
p823
I2004
sVconcerns
p824
I1638
sVadvantages
p825
I3405
sVteenager
p826
I749
sVinnocent
p827
I1033
sVprison
p828
I3931
sVels
p829
I2199
sVsave
p830
I1101
sVhat
p831
I3932
sVhumanity
p832
I2768
sVhav
p833
I2046
sVgave
p834
I1345
sVgraders
p835
I2842
sVenviornment
p836
I2973
sVbands
p837
I2679
sVprofessional
p838
I2454
sVparrent
p839
I3985
sVdisagreement
p840
I3373
sVpossible
p841
I817
sVpossibly
p842
I663
sVcultural
p843
I1435
sVbackground
p844
I1551
sVdestroy
p845
I1628
sVjudge
p846
I911
sVunique
p847
I1147
sVburnt
p848
I3714
sVdreams
p849
I1242
sVapart
p850
I1110
sVdesire
p851
I1309
sVpsychological
p852
I3935
sVgift
p853
I3715
sVtexts
p854
I3778
sVunfortunatly
p855
I3378
sVnude
p856
I1711
sVshaped
p857
I3812
sVunnecessary
p858
I1712
sVspecific
p859
I579
sVremind
p860
I2448
sVencyclopedia
p861
I3481
sVsteps
p862
I2763
sVzombies
p863
I3565
sVnight
p864
I1370
sVobsene
p865
I3209
sVguidence
p866
I2534
sV'well
p867
I3775
sVbeneficial
p868
I1884
sVright
p869
I71
sVold
p870
I287
sVdeal
p871
I419
sVpeople
p872
I24
sVsomehow
p873
I2143
sVpeoplr
p874
I3936
sVborn
p875
I1688
sVtooken
p876
I1665
sVescape
p877
I1297
sVdear
p878
I1039
sVpain
p879
I1824
sVadvertise
p880
I3716
sVintersted
p881
I3318
sVconfusing
p882
I2862
sVdifferant
p883
I2837
sVhumor
p884
I1538
sVfor
p885
I26
sVbottom
p886
I2449
sVear
p887
I3841
sVnormal
p888
I1027
sVcomments
p889
I899
sVcreative
p890
I1523
sVcontributing
p891
I3937
sVeverything
p892
I203
sVasking
p893
I1272
sVrebellion
p894
I3923
sVdenied
p895
I1604
sVfom
p896
I3938
sVbeating
p897
I2535
sVcompletly
p898
I1356
sVcore
p899
I2681
sVvarity
p900
I3497
sVmeanings
p901
I2615
sVdefend
p902
I3055
sVburn
p903
I1484
sVdisappeared
p904
I3717
sVprotagonist
p905
I2975
sVfullest
p906
I2767
sVlosing
p907
I1885
sVflaws
p908
I2906
sVoppinions
p909
I2292
sVdemocratic
p910
I3886
sVpermitted
p911
I2682
sVchapter
p912
I3718
sV'it
p913
I3567
sVmagazins
p914
I3568
sVyelling
p915
I2336
sVtheirs
p916
I1689
sVnewspapers
p917
I1069
sVcitizens
p918
I625
sVshield
p919
I2989
sVo
p920
I3395
sVmagazing
p921
I3569
sV'if
p922
I1288
sVmagazine
p923
I180
sVplus
p924
I1080
sVstuding
p925
I3767
sVimportantly
p926
I2104
sVthr
p927
I3374
sVslightly
p928
I3211
sVdoctor
p929
I3005
sVautomatically
p930
I2337
sVbeacuse
p931
I787
sVraised
p932
I1583
sVfantastic
p933
I3927
sVwhats
p934
I506
sVpublishing
p935
I1899
sVfacility
p936
I3397
sVcivil
p937
I3091
sVbound
p938
I1690
sVobscene
p939
I1733
sVtwo
p940
I420
sVdown
p941
I227
sVlies
p942
I1629
sVslurs
p943
I1383
sVmagazines
p944
I68
sVstumble
p945
I1737
sVmethods
p946
I2265
sVwan
p947
I1273
sVrely
p948
I3092
sVcrowd
p949
I3210
sVsupport
p950
I1118
sVconstantly
p951
I1358
sVfight
p952
I727
sVstuck
p953
I2201
sVaccordingly
p954
I3382
sVinfluencing
p955
I2145
sVeditor
p956
I2976
sVway
p957
I117
sVgreatness
p958
I3941
sVresulted
p959
I3408
sVcall
p960
I867
sVwat
p961
I1467
sVwas
p962
I75
sVwar
p963
I715
sVleading
p964
I2218
sVhappy
p965
I396
sV'and
p966
I1482
sVhead
p967
I870
sVmedium
p968
I2395
sVform
p969
I405
sVoffer
p970
I971
sVbecoming
p971
I1154
sVdifferences
p972
I1568
sVremoves
p973
I1436
sVparants
p974
I3746
sValchol
p975
I2616
sVlissening
p976
I3747
sVunderstandable
p977
I1057
sVremoved
p978
I124
sVtrue
p979
I442
sVsleeping
p980
I3620
sVtack
p981
I3310
sVarray
p982
I3742
sVprevents
p983
I3572
sVinside
p984
I753
sVhis/her
p985
I1647
sVdevices
p986
I3943
sVuntil
p987
I557
sVtouchy
p988
I2784
sVcomplaint
p989
I2537
sVemotional
p990
I1781
sVhorrifying
p991
I2978
sS'<unk>'
p992
I1
sVstorys
p993
I2308
sVproud
p994
I1738
sVproved
p995
I2239
sVsticks
p996
I3573
sVclassic
p997
I1200
sVnudity
p998
I900
sVabstract
p999
I3384
sVparagraphs
p1000
I2334
sVcovers
p1001
I1552
sVhungry
p1002
I3947
sV''
p1003
I82
sVsometime
p1004
I1437
sVexist
p1005
I1224
sVawhile
p1006
I2617
sVannoying
p1007
I3093
sVcheck
p1008
I220
sVphysical
p1009
I2863
sVmarking
p1010
I2980
sVprotested
p1011
I3948
sVdiscriminate
p1012
I3574
sVno
p1013
I74
sVagreeing
p1014
I2338
sVna
p1015
I711
sVcommercials
p1016
I2209
sVwhen
p1017
I89
sVactor
p1018
I1758
sVreality
p1019
I823
sVgrabbing
p1020
I3780
sVsetting
p1021
I1081
sVrole
p1022
I1176
sVholding
p1023
I2096
sVpapers
p1024
I2203
sVtest
p1025
I1691
sVbecuase
p1026
I687
sVsmell
p1027
I3949
sVroll
p1028
I2453
sVrealize
p1029
I542
sVbieng
p1030
I3950
sVpicture
p1031
I653
sV's
p1032
I61
sVmodels
p1033
I1666
sVdies
p1034
I2982
sVfelt
p1035
I841
sVconvincing
p1036
I2293
sVbelive
p1037
I591
sV'd
p1038
I818
sVintent
p1039
I3426
sVoppion
p1040
I2346
sV'm
p1041
I299
sVaware
p1042
I1065
sVdied
p1043
I2339
sVbillion
p1044
I1961
sVyounger
p1045
I305
sVbecaues
p1046
I1924
sVlonger
p1047
I828
sVapproiate
p1048
I3094
sVvulgure
p1049
I3879
sVassume
p1050
I1962
sVcontraversial
p1051
I2997
sVdaily
p1052
I1040
sVintrusion
p1053
I3925
sVtime
p1054
I158
sVpush
p1055
I2455
sVserious
p1056
I944
sVintimacy
p1057
I3721
sVdust
p1058
I3328
sVsongs
p1059
I345
sVcares
p1060
I1934
sVchilds
p1061
I1086
sVvampires
p1062
I2865
sVchain
p1063
I2766
sVwhoever
p1064
I1759
sVskip
p1065
I2618
sVexcellent
p1066
I3075
sValternatives
p1067
I3723
sVfocus
p1068
I1648
sVthemes
p1069
I1331
sVmanager
p1070
I1485
sVskim
p1071
I2902
sVskin
p1072
I1332
sVbattle
p1073
I1925
sVpoetry
p1074
I2579
sVsould
p1075
I1817
sVraciest
p1076
I3953
sVdevoted
p1077
I3386
sVcertainly
p1078
I1000
sVsuicide
p1079
I1818
sVdepend
p1080
I1819
sVsomthing
p1081
I678
sVabsolutly
p1082
I2294
sVfather
p1083
I1963
sVapropriate
p1084
I1782
sVpassage
p1085
I1852
sVenvironment
p1086
I1050
sVviolation
p1087
I2938
sVfinally
p1088
I683
sVcivilization
p1089
I2314
sVpromoting
p1090
I1734
sVrainbows
p1091
I2831
sVdiscovering
p1092
I2397
sVcircumstances
p1093
I2231
sVveterans
p1094
I3954
sVshoot
p1095
I2384
sVbeleave
p1096
I2147
sVadvantage
p1097
I3096
sVaffend
p1098
I3803
sVnone
p1099
I502
sVseemingly
p1100
I2867
sVchoice
p1101
I240
sVcutting
p1102
I3659
sVstays
p1103
I2049
sVlocked
p1104
I1878
sVtrouble
p1105
I643
sVlistin
p1106
I3098
sVexact
p1107
I1225
sVminute
p1108
I3215
sVcool
p1109
I770
sVproves
p1110
I2451
sVlevel
p1111
I554
sVdid
p1112
I190
sVdie
p1113
I1964
sVhappends
p1114
I3787
sVbrother
p1115
I877
sVlibarie
p1116
I1980
sVstandards
p1117
I1011
sVleave
p1118
I373
sVitem
p1119
I486
sVsettle
p1120
I3216
sVteam
p1121
I2456
sVquick
p1122
I2398
sVguy
p1123
I1186
sVround
p1124
I3578
sVadded
p1125
I3136
sVprevent
p1126
I664
sVtalked
p1127
I977
sVsays
p1128
I416
sVrents
p1129
I3217
sVporn
p1130
I1299
sVcollage
p1131
I3956
sVdealing
p1132
I1820
sVdiscover
p1133
I1187
sVsign
p1134
I1260
sVunrepresented
p1135
I3957
sVcost
p1136
I2868
sV'blonde
p1137
I3958
sVcorner
p1138
I2999
sVeating
p1139
I3466
sVrough
p1140
I2277
sVunlikely
p1141
I3933
sVeducate
p1142
I1177
sVcurse
p1143
I716
sVadds
p1144
I3579
sVconstitution
p1145
I1346
sVassistance
p1146
I2097
sVcelebrated
p1147
I3959
sVmall
p1148
I3257
sVagrees
p1149
I1548
sVcurrent
p1150
I1261
sVgoes
p1151
I383
sVshared
p1152
I1783
sVfalling
p1153
I2457
sVappeal
p1154
I1371
sVmasterpieces
p1155
I3656
sVfilled
p1156
I978
sVsatisfy
p1157
I2098
sVsupporting
p1158
I2541
sVrealizing
p1159
I3412
sVpose
p1160
I3380
sVlibaray
p1161
I2010
sVoldies
p1162
I3218
sVheavily
p1163
I3167
sVguardian
p1164
I1202
sVconcepts
p1165
I1887
sVunderstanding
p1166
I895
sVwater
p1167
I3725
sVcontemplate
p1168
I3219
sVentertain
p1169
I1111
sVwitch
p1170
I2011
sVgroups
p1171
I524
sVelses
p1172
I1333
sValone
p1173
I738
sVgrabbed
p1174
I3668
sValong
p1175
I665
sVteaches
p1176
I1155
sVteacher
p1177
I679
sVchange
p1178
I341
sVwait
p1179
I1713
sVbox
p1180
I2619
sVboy
p1181
I922
sVhealthy
p1182
I2684
sVimpacted
p1183
I3221
sVoffen
p1184
I2765
sVwherever
p1185
I3222
sVcommonly
p1186
I2241
sVexample
p1187
I206
sVaccomplished
p1188
I2459
sVfiremen
p1189
I3391
sVsuggestion
p1190
I2149
sVusually
p1191
I566
sVweird
p1192
I3100
sVviolance
p1193
I1770
sVstudies
p1194
I3223
sVteenage
p1195
I1163
sVmagnazines
p1196
I3463
sVlove
p1197
I360
sVmorals
p1198
I945
sVextra
p1199
I2869
sVmerely
p1200
I2150
sVprefer
p1201
I1310
sVmarked
p1202
I1231
sVconversations
p1203
I3166
sVpeer
p1204
I1923
sVfake
p1205
I2461
sVmarker
p1206
I3392
sVhighschoolers
p1207
I2542
sVrarely
p1208
I1928
sVpost
p1209
I2685
sVmarket
p1210
I1372
sVeverybody
p1211
I366
sVopposes
p1212
I2571
sVvoices
p1213
I3588
sVhandled
p1214
I2399
sVworking
p1215
I1888
sVprove
p1216
I1274
sVsake
p1217
I1821
sVpositive
p1218
I972
sVangry
p1219
I1178
sVscan
p1220
I3726
sVvisit
p1221
I1041
sVsports
p1222
I984
sVimaginations
p1223
I2769
sVlive
p1224
I381
sVbases
p1225
I2939
sVupheld
p1226
I2400
sViphone
p1227
I3727
sVwondering
p1228
I2242
sVcriteria
p1229
I2713
sVfilms
p1230
I1585
sVbelieving
p1231
I1570
sVassociated
p1232
I3819
sVcheckout
p1233
I2151
sVtoday
p1234
I213
sVloving
p1235
I2243
sV``
p1236
I84
sVteased
p1237
I2686
sVpeices
p1238
I3101
sVafford
p1239
I2770
sVdislikes
p1240
I1530
sVacceptable
p1241
I707
sVinventions
p1242
I3963
sVcashier
p1243
I3728
sVclue
p1244
I3393
sVimmages
p1245
I3964
sVvisual
p1246
I1586
sVeverywhere
p1247
I626
sVagianst
p1248
I3102
sVcases
p1249
I783
sVeffort
p1250
I1289
sVeasiest
p1251
I2462
sVbehalf
p1252
I3225
sVorganizations
p1253
I2871
sVgraphic
p1254
I586
sVanything
p1255
I169
sVcar
p1256
I1122
sVoriginally
p1257
I3965
sVchilderen
p1258
I1087
sVabortion
p1259
I1761
sVsoul
p1260
I2341
sVbeliever
p1261
I2771
sVbelieves
p1262
I832
sVreviews
p1263
I2620
sVlabeled
p1264
I1232
sVminimum
p1265
I3621
sVvalues
p1266
I1058
sVcan
p1267
I40
sVgrowing
p1268
I694
sVmaking
p1269
I393
sVdisgust
p1270
I3703
sVfeature
p1271
I3734
sVsocial
p1272
I1567
sVheart
p1273
I1233
sVcrazy
p1274
I1003
sVmonths
p1275
I2536
sVcorrupted
p1276
I3729
sVhears
p1277
I1469
sVdownfall
p1278
I3103
sVexpanding
p1279
I2872
sVawesome
p1280
I3226
sVarise
p1281
I3131
sVconfused
p1282
I1965
sVtopic
p1283
I316
sVheard
p1284
I404
sS'<pad>'
p1285
I0
sVsued
p1286
I2729
sVdropped
p1287
I3104
sVallowed
p1288
I233
sVoffense
p1289
I499
sVprovoke
p1290
I3730
sVclothing
p1291
I2873
sVoccur
p1292
I1692
sVlistens
p1293
I1668
sVinnappropiate
p1294
I2909
sVrequirements
p1295
I3105
sVlabrary
p1296
I2941
sVdivided
p1297
I1453
sVmeans
p1298
I418
sVsudden
p1299
I2463
sVwrite
p1300
I303
sVtill
p1301
I1714
sVvital
p1302
I2204
sVpure
p1303
I2152
sVhaveing
p1304
I2244
sVspeaks
p1305
I3731
sVeconomy
p1306
I2100
sVproduct
p1307
I1470
sVhuge
p1308
I684
sVinfront
p1309
I3041
sVdive
p1310
I2874
sVweither
p1311
I2875
sVspot
p1312
I1524
sVdisgusted
p1313
I2876
sVproduce
p1314
I1929
sVmad
p1315
I519
sVcommit
p1316
I3570
sVdate
p1317
I2772
sVsuch
p1318
I156
sVsuck
p1319
I2773
sVdestructive
p1320
I3580
sVguys
p1321
I1486
sVgrow
p1322
I498
sVman
p1323
I505
sVclassroom
p1324
I1735
sVstress
p1325
I2774
sVnatural
p1326
I1763
sVremember
p1327
I592
sVopioin
p1328
I3332
sVwhenever
p1329
I1408
sVmaybe
p1330
I254
sVfutures
p1331
I3396
sVexplicit
p1332
I460
sV'to
p1333
I1420
sVtale
p1334
I3582
sVprovide
p1335
I777
sVso
p1336
I54
sVsilence
p1337
I3468
sVafrican
p1338
I2153
sVoffend
p1339
I280
sVtall
p1340
I2988
sVoffencive
p1341
I881
sVtalk
p1342
I309
sVexclusive
p1343
I3733
sVcomfort
p1344
I1976
sVglass
p1345
I3952
sVshoes
p1346
I2131
sVindeed
p1347
I2101
sVdistinctly
p1348
I3000
sVdisplayed
p1349
I1023
sVunacceptable
p1350
I1670
sVyears
p1351
I375
sVbrain
p1352
I1307
sVepisodes
p1353
I3970
sVexperiments
p1354
I3228
sVargued
p1355
I3503
sVstatements
p1356
I1584
sVcold
p1357
I2877
sVstill
p1358
I215
sVtendency
p1359
I3971
sVblocked
p1360
I1300
sVaccepted
p1361
I2210
sVshoul
p1362
I3377
sVgroup
p1363
I321
sVthank
p1364
I890
sVfaults
p1365
I2601
sVselves
p1366
I1012
sVinteresting
p1367
I401
sVtorn
p1368
I3510
sVtroubles
p1369
I2775
sVhot
p1370
I2744
sVforms
p1371
I1070
sVoffers
p1372
I2205
sVwhole
p1373
I424
sVlisting
p1374
I2343
sVpolicy
p1375
I1966
sVmail
p1376
I3512
sVmain
p1377
I577
sVtelevison
p1378
I2136
sVvisiting
p1379
I3636
sVhappened
p1380
I478
sVconveying
p1381
I3973
sVnon
p1382
I1931
sVinapropiate
p1383
I1873
sVviews
p1384
I336
sVinapproriate
p1385
I3585
sVsmarter
p1386
I2051
sVsooner
p1387
I1102
sVnation
p1388
I896
sVrecords
p1389
I2465
sVshelf-that
p1390
I1822
sVhalf
p1391
I804
sVnot
p1392
I17
sVsorted
p1393
I2776
sVnow
p1394
I170
sVtwilight
p1395
I2777
sVkilled
p1396
I1203
sVnor
p1397
I1606
sVwont
p1398
I539
sVotheres
p1399
I3974
sVterm
p1400
I1649
sVequality
p1401
I3107
sVname
p1402
I795
sVthankful
p1403
I3939
sVdrop
p1404
I2102
sVbeings
p1405
I1886
sVunexceptable
p1406
I2052
sVpossibilities
p1407
I2688
sVrealistic
p1408
I2689
sVshopuld
p1409
I3975
sVrock
p1410
I1334
sVdiffernet
p1411
I3735
sVentirely
p1412
I1693
sVindividually
p1413
I3736
sV'can
p1414
I3976
sVlibrares
p1415
I3586
sVfired
p1416
I1932
sVchallenged
p1417
I2103
sVscheme
p1418
I3444
sVyeah
p1419
I1539
sVvielence
p1420
I2891
sVfilthy
p1421
I3968
sVfires
p1422
I3400
sVappropreate
p1423
I3615
sVentering
p1424
I2778
sVyear
p1425
I471
sVhappen
p1426
I284
sVsummary
p1427
I1825
sVintended
p1428
I1112
sValbum
p1429
I1540
sVliving
p1430
I779
sVshown
p1431
I874
sVaccomplish
p1432
I2295
sVopened
p1433
I3174
sVfactors
p1434
I2012
sVfurthermore
p1435
I1694
sVlooking
p1436
I231
sVcensorize
p1437
I3587
sVcontained
p1438
I1129
sVmakeing
p1439
I3403
sVinternet
p1440
I479
sVsuggesting
p1441
I3230
sVopion
p1442
I1640
sVreceiving
p1443
I3404
sVsensor
p1444
I1967
sVcorrect
p1445
I979
sVshows
p1446
I385
sVearlier
p1447
I1243
sVtheory
p1448
I2403
sVcars
p1449
I1933
sVhomosexual
p1450
I3324
sVmillion
p1451
I2779
sVseventh
p1452
I2466
sVpossibility
p1453
I2780
sVquite
p1454
I766
sVdisrespect
p1455
I2246
sVstatistics
p1456
I3469
sVunwanted
p1457
I3090
sVrebel
p1458
I2544
sVbesides
p1459
I1226
sVgrandma
p1460
I2781
sVpoems
p1461
I3232
sVscarred
p1462
I3233
sVcard
p1463
I1156
sVcare
p1464
I432
sVadvance
p1465
I2992
sVoppenion
p1466
I3739
sVshocking
p1467
I2801
sVlanguage
p1468
I226
sVselections
p1469
I2296
sVdiscussing
p1470
I2207
sVheadphones
p1471
I2344
sVmodest
p1472
I3978
sVhonest
p1473
I1695
sVturn
p1474
I530
sVscarry
p1475
I3406
sVplace
p1476
I174
sVpregant
p1477
I3593
sVstar
p1478
I2596
sVthink
p1479
I47
sVfrequent
p1480
I2993
sVfirst
p1481
I243
sVemotion
p1482
I2247
sVrateing
p1483
I3214
sVreveals
p1484
I3234
sVspoken
p1485
I2782
sVyourself
p1486
I598
sVamericans
p1487
I2621
sVfast
p1488
I1516
sVdirectly
p1489
I2297
sVvote
p1490
I1227
sVimpossible
p1491
I956
sVmessage
p1492
I704
sVraped
p1493
I3212
sVopen
p1494
I465
sVtomorrow
p1495
I2881
sVmillions
p1496
I1139
sVrented
p1497
I2014
sVcity
p1498
I1311
sVgiven
p1499
I580
sVnecessarily
p1500
I1438
sVchecked
p1501
I690
sVknoledge
p1502
I1881
sVlibraian
p1503
I2994
sVcaught
p1504
I2547
sVwaist
p1505
I2987
sVestablishment
p1506
I3687
sVanyone
p1507
I251
sVfought
p1508
I2683
sVrealization
p1509
I3981
sVwhite
p1510
I912
sVbits
p1511
I3539
sVfriend
p1512
I737
sVgives
p1513
I723
sVbenifits
p1514
I3439
sVeyes
p1515
I509
sVmostly
p1516
I805
sVthat
p1517
I7
sVbrains
p1518
I2882
sVthay
p1519
I2883
sVhurtful
p1520
I1250
sVproving
p1521
I3982
sVworded
p1522
I3020
sVreleased
p1523
I1650
sVridiculous
p1524
I1525
sVeliminated
p1525
I3409
sVcopy
p1526
I2404
sVthan
p1527
I189
sVpopulation
p1528
I1113
sVwide
p1529
I993
sVtelevision
p1530
I485
sVbored
p1531
I2173
sVeffective
p1532
I2251
sVlanguge
p1533
I2996
sVdepressed
p1534
I2467
sVrequire
p1535
I2206
sVknowledges
p1536
I3146
sVhalls
p1537
I3213
sVfuture
p1538
I370
sVpurposely
p1539
I3719
sVwere
p1540
I131
sVaccessed
p1541
I2885
sVoutcome
p1542
I1854
sVwandering
p1543
I2783
sVand
p1544
I8
sVquestionable
p1545
I2202
sVdiffernce
p1546
I3916
sVcomming
p1547
I2821
sVnicer
p1548
I3983
sVacknowledged
p1549
I3077
sVtopics
p1550
I462
sVturned
p1551
I1228
sVargument
p1552
I871
sVsad
p1553
I882
sVunecessary
p1554
I2887
sVsay
p1555
I127
sVconspiracy
p1556
I3589
sVsuspense
p1557
I3743
sVrent
p1558
I761
sVanger
p1559
I1696
sVsells
p1560
I3110
sVsaw
p1561
I526
sVany
p1562
I105
sVsat
p1563
I3235
sVreglion
p1564
I3984
sVunsuitable
p1565
I2248
sVbelifs
p1566
I2622
sVindustries
p1567
I3322
sVideas
p1568
I311
sVshocked
p1569
I2345
sVnote
p1570
I1889
sVpotential
p1571
I1385
sVtake
p1572
I79
sVonline
p1573
I1188
sVwanting
p1574
I897
sVwonder
p1575
I1164
sVblunt
p1576
I3744
sVchannel
p1577
I2155
sVtherefor
p1578
I2501
sVbegin
p1579
I755
sVsure
p1580
I315
sVmultiple
p1581
I1569
sVtheatre
p1582
I2156
sVopposite
p1583
I1148
sVarguing
p1584
I1630
sVdispute
p1585
I3988
sVknew
p1586
I928
sVpaid
p1587
I3590
sV'good
p1588
I3647
sVvisitors
p1589
I3111
sV@num
p1590
I198
sVprinted
p1591
I3236
sVoccurred
p1592
I3299
sVcomplaints
p1593
I1553
sVlibrarian
p1594
I563
sVamerica
p1595
I1541
sVpages
p1596
I1015
sVdefinatly
p1597
I3745
sVpeaceful
p1598
I3116
sVforever
p1599
I1123
sVpeice
p1600
I1765
sVsums
p1601
I3249
sVespecially
p1602
I623
sVtelivision
p1603
I3411
sVconsidered
p1604
I453
sVaverage
p1605
I2468
sVlater
p1606
I532
sVdrive
p1607
I1671
sVoffeneded
p1608
I1909
sVfederal
p1609
I2694
sVlikley
p1610
I3688
sVslaves
p1611
I1472
sVhear
p1612
I244
sVsenior
p1613
I2405
sVtypically
p1614
I2548
sVlaws
p1615
I1201
sVshop
p1616
I2998
sVrating
p1617
I759
sVwalking
p1618
I929
sVdrastically
p1619
I3748
sVshot
p1620
I2157
sVshow
p1621
I256
sVminutes
p1622
I2665
sVfifty
p1623
I2889
sVdiscovered
p1624
I2298
sVbright
p1625
I2469
sVfaster
p1626
I2700
sVcheak
p1627
I3749
sVmexican
p1628
I2798
sVlabel
p1629
I1715
sVtakin
p1630
I1488
sVfifth
p1631
I2299
sVground
p1632
I2458
sVspecifically
p1633
I1680
sVeveyone
p1634
I1897
sVtitle
p1635
I1373
sVobserve
p1636
I2471
sVwritten
p1637
I433
sVcrime
p1638
I1114
sVcelebreties
p1639
I3961
sVonly
p1640
I134
sVgoing
p1641
I129
sVblack
p1642
I719
sVessence
p1643
I2705
sVdoesent
p1644
I3413
sVposted
p1645
I3284
sVcongressional
p1646
I3987
sVchoise
p1647
I3414
sVtelevisions
p1648
I2890
sVcorrectly
p1649
I2133
sVviewpoint
p1650
I3113
sVget
p1651
I69
sVvary
p1652
I1662
sVjazz
p1653
I2693
sVdesignated
p1654
I3591
sVtruly
p1655
I1088
sVcursing
p1656
I861
sVnearly
p1657
I1554
sVblocking
p1658
I2087
sVenjoys
p1659
I2249
sVbuilds
p1660
I3571
sVprime
p1661
I3238
sVregarding
p1662
I2406
sVresource
p1663
I1229
sVartist
p1664
I640
sVborrow
p1665
I1890
sVtrys
p1666
I3989
sVworried
p1667
I952
sVnaked
p1668
I1172
sVjokes
p1669
I1454
sVstupid
p1670
I1042
sVbombs
p1671
I2053
sVforces
p1672
I2850
sVworries
p1673
I3239
sVwhere
p1674
I154
sVworrying
p1675
I3001
sVvision
p1676
I2785
sVstumbled
p1677
I3764
sVignored
p1678
I3114
sVhonesty
p1679
I3002
sVgour
p1680
I3991
sVphysically
p1681
I2105
sVdoes'nt
p1682
I3240
sVpritty
p1683
I3995
sVseat
p1684
I2995
sVrelative
p1685
I2347
sVdoings
p1686
I3594
sVunfit
p1687
I2892
sVcollege
p1688
I1507
sVanyways
p1689
I1016
sVeliminating
p1690
I1826
sVimpressions
p1691
I3992
sVsport
p1692
I3416
sVviolates
p1693
I3115
sVconcern
p1694
I1189
sVyouself
p1695
I3993
sVappear
p1696
I2540
sVprotray
p1697
I3893
sVways
p1698
I340
sVreview
p1699
I1855
sVsites
p1700
I3241
sVmaterials
p1701
I110
sVboundaries
p1702
I2158
sVenough
p1703
I314
sVun
p1704
I2820
sVbetween
p1705
I599
sVthimk
p1706
I3994
sVcomplications
p1707
I3944
sVteens
p1708
I359
sVreading
p1709
I101
sVacross
p1710
I382
sVnotice
p1711
I1607
sVjobs
p1712
I2250
sVparent
p1713
I212
sVparental
p1714
I1422
sVscreen
p1715
I1766
sVmoives
p1716
I2695
sVinjoy
p1717
I3595
sVkilling
p1718
I645
sVblame
p1719
I901
sVinapropriate
p1720
I717
sVconcentrate
p1721
I3996
sVspare
p1722
I3997
sVhurts
p1723
I2550
sVsingers
p1724
I1716
sVarticle
p1725
I691
sVspark
p1726
I2054
sVcities
p1727
I2408
sVcome
p1728
I214
sVundermine
p1729
I3243
sVrecall
p1730
I3027
sVreaction
p1731
I2409
sVmans
p1732
I3244
sVmany
p1733
I90
sVmaterail
p1734
I3245
sVquiet
p1735
I1251
sVpersonal
p1736
I351
sVs
p1737
I1672
sVpatrons
p1738
I2623
sVguardians
p1739
I1827
sVavoided
p1740
I3401
sVexpression
p1741
I996
sVcomes
p1742
I307
sVallowance
p1743
I3999
sVduty
p1744
I2696
sVamong
p1745
I1165
sVcancer
p1746
I1828
sVcolor
p1747
I1211
sVendless
p1748
I2132
sVrelocated
p1749
I3474
sVperiod
p1750
I1301
sVpop
p1751
I2634
sVmaintained
p1752
I3596
sVlearning
p1753
I285
sVdisgrace
p1754
I2894
sVcomprehend
p1755
I1969
sVconsiders
p1756
I2252
sVconsidering
p1757
I1490
sVdestroyed
p1758
I1645
sVgraphics
p1759
I3325
sVlifes
p1760
I2208
sVgrand
p1761
I3461
sVcapable
p1762
I1631
sVsuppressed
p1763
I3998
sVinformed
p1764
I1473
sVmark
p1765
I2348
sVpunished
p1766
I1322
sVdangers
p1767
I1935
sVhardly
p1768
I1856
sVruining
p1769
I2261
sVwants
p1770
I323
sVdirection
p1771
I3750
sVeducated
p1772
I1290
sVshopping
p1773
I3598
sVrobbed
p1774
I3751
sVoffered
p1775
I1717
sVformed
p1776
I2254
sVreadings
p1777
I1403
sVphotos
p1778
I2788
sVdramatic
p1779
I2349
sVwake
p1780
I3004
sVproven
p1781
I2450
sVlaying
p1782
I2257
sVcareful
p1783
I1302
sVweeks
p1784
I2959
sVthose
p1785
I125
sVcountless
p1786
I1608
sVsound
p1787
I1335
sVmyself
p1788
I496
sVhall
p1789
I3399
sVdeveloping
p1790
I1936
sVthese
p1791
I87
sVdesicions
p1792
I3534
sVn't
p1793
I31
sVdiverse
p1794
I1532
sVongoing
p1795
I3600
sVfreely
p1796
I1093
sVnewspaper
p1797
I784
sVsituation
p1798
I504
sVeventually
p1799
I642
sVcharacteristics
p1800
I3601
sVaccording
p1801
I1489
sVmiddle
p1802
I1103
sVgood
p1803
I130
sVembrace
p1804
I3418
sVminds
p1805
I516
sVloosing
p1806
I1829
sVreturn
p1807
I1394
sVexperiance
p1808
I3602
sVproperty
p1809
I2188
sVtechnology
p1810
I1526
sVeveryday
p1811
I439
sVworry
p1812
I472
sVdifferent
p1813
I103
sVdevelop
p1814
I2300
sVharsh
p1815
I891
sVauthor
p1816
I264
sVpay
p1817
I720
sVgranted
p1818
I2017
sVsame
p1819
I144
sVtrip
p1820
I2698
sVeverday
p1821
I3247
sVspeech
p1822
I327
sVarguments
p1823
I1291
sVladies
p1824
I3122
sVdocument
p1825
I2551
sVevents
p1826
I581
sVweek
p1827
I1303
sVabhor-
p1828
I1423
sVcenturies
p1829
I1609
sV'then
p1830
I3006
sVenjoyment
p1831
I1157
sVdrives
p1832
I3752
sVproducers
p1833
I1571
sVpersons
p1834
I732
sVrunning
p1835
I2159
sVadvertisement
p1836
I2472
sVchanging
p1837
I1140
sVtotally
p1838
I1166
sVcartoon
p1839
I2018
sVmentally
p1840
I2552
sV'do
p1841
I3118
sVcomplained
p1842
I1937
sVdrain
p1843
I3804
sVtheater
p1844
I2302
sVgardian
p1845
I2160
sVfloor
p1846
I2452
sVconstitutional
p1847
I1610
sVmagical
p1848
I2410
sVthings.so
p1849
I3385
sVsevere
p1850
I1938
sVwithout
p1851
I252
sVsolve
p1852
I963
sVmodel
p1853
I1858
sVoffensively
p1854
I2411
sVbodies
p1855
I2977
sVjustify
p1856
I3753
sVschoolers
p1857
I1409
sVgangs
p1858
I1424
sVbeing
p1859
I152
sVmoney
p1860
I467
sVunconstitutional
p1861
I1859
sVrest
p1862
I833
sVpersonaly
p1863
I2255
sVfoot
p1864
I2562
sVviolent
p1865
I572
sVspeek
p1866
I3420
sVkill
p1867
I1115
sVhanded
p1868
I2981
sVaspect
p1869
I1336
sVradios
p1870
I3007
sVtouch
p1871
I1785
sV'mistakes
p1872
I3421
sVcontroling
p1873
I3170
sVblow
p1874
I3754
sVdeath
p1875
I1071
sVsecondly
p1876
I1286
sVgrounded
p1877
I3248
sVoverdue
p1878
I3575
sVthinking
p1879
I537
sVseems
p1880
I633
sVexcept
p1881
I1212
sVlets
p1882
I847
sVinterested
p1883
I535
sVbigger
p1884
I989
sVextensive
p1885
I3008
sVconsiderd
p1886
I2470
sVreal
p1887
I386
sVexpresion
p1888
I3263
sVaspects
p1889
I1587
sVaround
p1890
I207
sVrules
p1891
I1034
sVoffence
p1892
I1611
sVbecuse
p1893
I1746
sVunappropiate
p1894
I3520
sVearly
p1895
I1158
sVexceptable
p1896
I3422
sVpreference
p1897
I2055
sVmom
p1898
I670
sVworld
p1899
I116
sVrailroad
p1900
I3605
sVcd
p1901
I786
sVlady
p1902
I1612
sVlibray
p1903
I1159
sVmeat
p1904
I2960
sVstranger
p1905
I3250
sVinconclusion
p1906
I3120
sVpregnant
p1907
I2165
sV've
p1908
I463
sVaudience
p1909
I810
sVeither
p1910
I402
sVfully
p1911
I1190
sVattempting
p1912
I2888
sVaccidentally
p1913
I2340
sVtwelve
p1914
I1613
sVreaches
p1915
I3663
sVverbal
p1916
I3423
sVexposed
p1917
I397
sVhelpfull
p1918
I2641
sVtable
p1919
I3163
sVimages
p1920
I721
sVintend
p1921
I2553
sVracial
p1922
I819
sVthinks
p1923
I491
sVcomposers
p1924
I2790
sVprovided
p1925
I1509
sVmood
p1926
I1651
sVaudiance
p1927
I3010
sVmemories
p1928
I2791
sVnazi
p1929
I2154
sVrecorded
p1930
I2304
sVlegal
p1931
I1304
sVconservative
p1932
I3424
sVcritical
p1933
I3606
sVprovides
p1934
I1305
sVporson
p1935
I3652
sVdecent
p1936
I3164
sVrefer
p1937
I2473
sVdestroys
p1938
I2792
sVbiased
p1939
I2474
sVwelcome
p1940
I1605
sVpower
p1941
I883
sVseconds
p1942
I3607
sVcommunicate
p1943
I3759
sVbroken
p1944
I1970
sVcharater
p1945
I3815
sVinnocence
p1946
I1786
sVexciting
p1947
I2897
sVthrow
p1948
I835
sV'the
p1949
I987
sVon
p1950
I35
sVok
p1951
I634
sVstations
p1952
I2626
sVof
p1953
I10
sVindustry
p1954
I1588
sVviolence
p1955
I302
sVfavorite
p1956
I500
sVjourney
p1957
I2944
sVsupervised
p1958
I3425
sVgreatly
p1959
I1125
sVneighbor
p1960
I1892
sVact
p1961
I533
sVmixed
p1962
I3012
sVtelevsion
p1963
I3951
sVor
p1964
I20
sVroad
p1965
I1971
sVresearching
p1966
I1597
sVlands
p1967
I3013
sVburning
p1968
I1456
sVcurses
p1969
I3761
sVwhites
p1970
I2627
sVcommunication
p1971
I3762
sVimage
p1972
I1179
sVscores
p1973
I2864
sVnoone
p1974
I1544
sVreferences
p1975
I1386
sVdetermine
p1976
I1572
sVparties
p1977
I1589
sVelementary
p1978
I1072
sVvaluable
p1979
I1410
sVlastly
p1980
I946
sVnowadays
p1981
I1615
sVyour
p1982
I96
sVupstairs
p1983
I2262
sVher
p1984
I257
sVarea
p1985
I394
sVremoving
p1986
I371
sVstrictly
p1987
I2211
sVthere
p1988
I32
sVracism
p1989
I750
sVstrict
p1990
I1141
sVappears
p1991
I3609
sVliturature
p1992
I2352
sVracist
p1993
I762
sVlow
p1994
I1364
sVlot
p1995
I210
sVcultures
p1996
I1392
sVexceptional
p1997
I3670
sVcondone
p1998
I3763
sVcomplete
p1999
I1457
sVgory
p2000
I1555
sVjudging
p2001
I3003
sVpleased
p2002
I2009
sVamongst
p2003
I2699
sVpolice
p2004
I2990
sVapproves
p2005
I3447
sVjus
p2006
I2019
sVoffensice
p2007
I2898
sVended
p2008
I2543
sVgore
p2009
I1718
sVtrying
p2010
I295
sVwith
p2011
I59
sVbuying
p2012
I1262
sVbecasue
p2013
I1152
sVabused
p2014
I2477
sVpull
p2015
I953
sVparnets
p2016
I3016
sVarranged
p2017
I3017
sVromantic
p2018
I1830
sVcomics
p2019
I1698
sVsimilarly
p2020
I3899
sVpostive
p2021
I2899
sVdirty
p2022
I1527
sVorganize
p2023
I2090
sVpolitically
p2024
I2056
sVbeliefs
p2025
I412
sVamendments
p2026
I2377
sVstrongly
p2027
I763
sVgone
p2028
I488
sVdangerous
p2029
I1643
sVad
p2030
I3675
sVvideos
p2031
I1028
sVtaste
p2032
I829
sVcertain
p2033
I86
sVdescribe
p2034
I1699
sVmoved
p2035
I1275
sVsales
p2036
I2900
sVwatches
p2037
I1528
sVgeneral
p2038
I980
sVimagination
p2039
I1044
sVas
p2040
I58
sVdeem
p2041
I1563
sVat
p2042
I65
sVwalks
p2043
I1430
sVpolitics
p2044
I1142
sVmoves
p2045
I2901
sVfilm
p2046
I1244
sVfill
p2047
I1491
sVlibrarys
p2048
I667
sVagain
p2049
I376
sVgenres
p2050
I906
sVunapproiate
p2051
I3892
sVdeserve
p2052
I1213
sVcomedies
p2053
I3536
sVfield
p2054
I3611
sVvalid
p2055
I1700
sVremarks
p2056
I3237
sVlifestyle
p2057
I2836
sVsomeones
p2058
I919
sVacceptance
p2059
I2813
sVyou
p2060
I23
sVforcing
p2061
I1375
sVthousand
p2062
I2787
sVpoor
p2063
I1939
sVoneself
p2064
I3765
sVvocabulary
p2065
I1674
sVseparate
p2066
I1214
sVstudents
p2067
I347
sVsymbol
p2068
I3766
sVincludes
p2069
I1215
sV'cool
p2070
I2554
sVimportant
p2071
I320
sVtrack
p2072
I2335
sVsuited
p2073
I1474
sVincluded
p2074
I2413
sVrevolve
p2075
I3018
sVoccasionally
p2076
I2704
sVbuilding
p2077
I1024
sVwondered
p2078
I2215
sVcalls
p2079
I3124
sVscenes
p2080
I676
sVodds
p2081
I2513
sVwebsites
p2082
I1439
sVoffensiveness
p2083
I1836
sVdirectors
p2084
I1348
sVpassed
p2085
I1576
sVu
p2086
I630
sVavaible
p2087
I2353
sVgod
p2088
I2674
sValright
p2089
I1167
sVaslo
p2090
I2047
sVstarting
p2091
I1556
sVoriginal
p2092
I2058
sVrepresent
p2093
I3613
sVall
p2094
I50
sVsurrounded
p2095
I3441
sVconsider
p2096
I802
sVvile
p2097
I3614
sVcaused
p2098
I1894
sVlack
p2099
I1252
sVremeber
p2100
I3019
sVfounded
p2101
I2628
sVconcept
p2102
I1321
sVcommunist
p2103
I3669
sVtalks
p2104
I842
sVfollow
p2105
I968
sVeveryones
p2106
I1393
sVdecisions
p2107
I733
sVchildren
p2108
I55
sVcauses
p2109
I1090
sVreferring
p2110
I3428
sVhunting
p2111
I2671
sVtv
p2112
I767
sVsubjected
p2113
I2085
sVlaid
p2114
I3693
sVopportunities
p2115
I3768
sVremoval
p2116
I1053
sVto
p2117
I6
sVprogram
p2118
I3769
sVth
p2119
I2478
sVti
p2120
I3252
sVhealth
p2121
I1513
sVenjoying
p2122
I1973
sVdisarm
p2123
I3052
sVta
p2124
I1895
sVcase
p2125
I487
sVwoman
p2126
I913
sVworse
p2127
I713
sVsong
p2128
I319
sVvery
p2129
I149
sVhorror
p2130
I1094
sVbombarded
p2131
I3430
sVsaved
p2132
I2281
sVtoss
p2133
I2979
sVworst
p2134
I1326
sVminded
p2135
I1940
sVdecide
p2136
I413
sVfall
p2137
I1426
sVawful
p2138
I2022
sVdifference
p2139
I811
sVtreating
p2140
I3126
sVleads
p2141
I1505
sVdictatorship
p2142
I3616
sVmothers
p2143
I1632
sV--
p2144
I957
sVcelebrity
p2145
I3617
sVlist
p2146
I947
sVtheaters
p2147
I1667
sVauthers
p2148
I2360
sVlarge
p2149
I884
sVsang
p2150
I2794
sVindependence
p2151
I3694
sVsmall
p2152
I558
sVpeole
p2153
I2984
sVgang
p2154
I2717
sVquicker
p2155
I3254
sVtitled
p2156
I1900
sVten
p2157
I1216
sVattended
p2158
I3738
sVstreets
p2159
I2109
sVgrabs
p2160
I3618
sVcensuring
p2161
I3021
sVpast
p2162
I363
sVrate
p2163
I1116
sVtitles
p2164
I1974
sVperspective
p2165
I1245
sVlawyer
p2166
I3022
sVgossip
p2167
I1404
sVfurther
p2168
I1975
sVpromotes
p2169
I2183
sVappropiate
p2170
I1031
sVreturned
p2171
I3253
sVcreatures
p2172
I3023
sVwhat
p2173
I30
sVstood
p2174
I3024
sVconsumers
p2175
I2110
sVwitnessed
p2176
I2903
sVshould't
p2177
I2111
sVfavor
p2178
I2430
sVsection
p2179
I172
sVemotions
p2180
I1276
sVlikeing
p2181
I3514
sVcrush
p2182
I3362
sVversion
p2183
I1253
sVattitudes
p2184
I3772
sVboundary
p2185
I3672
sVmurchandise
p2186
I3779
sVlearned
p2187
I651
sVpublic
p2188
I153
sVmovement
p2189
I3619
sVrevealing
p2190
I2795
sVedited
p2191
I2555
sVfull
p2192
I584
sVchristian
p2193
I3127
sVathiest
p2194
I3773
sVloose
p2195
I2112
sVtracks
p2196
I3432
sVanswers
p2197
I2904
sVlable
p2198
I3628
sVhours
p2199
I1529
sVshouldn
p2200
I1860
sVkillings
p2201
I2866
sVthemself
p2202
I1440
sVi.d
p2203
I2306
sVstrong
p2204
I789
sVobserving
p2205
I3128
sVtragedy
p2206
I3774
sVnegitive
p2207
I2146
sVamoung
p2208
I3433
sVsearch
p2209
I1009
sVbible
p2210
I1633
sVcolored
p2211
I1191
sVahead
p2212
I1701
sVlieing
p2213
I3583
sVavailible
p2214
I2905
sVinspired
p2215
I2113
sVallows
p2216
I914
sVexperimenting
p2217
I3790
sVexperience
p2218
I367
sVprior
p2219
I2796
sVamount
p2220
I628
sVlaughing
p2221
I2624
sVarent
p2222
I1941
sVpick
p2223
I263
sVaction
p2224
I673
sVsupervision
p2225
I2414
sVintitled
p2226
I2354
sVoptions
p2227
I1652
sVsticking
p2228
I3777
sVfollowed
p2229
I2479
sVours
p2230
I3584
sVfamily
p2231
I514
sVmusics
p2232
I3783
sVsuddenly
p2233
I2024
sVdeals
p2234
I3148
sVdisgusting
p2235
I2557
sVput
p2236
I146
sVaimed
p2237
I3434
sVtoys
p2238
I3435
sVpulls
p2239
I3256
sVactress
p2240
I2558
sVcatagories
p2241
I2307
sVselect
p2242
I1263
sVlanguages
p2243
I3821
sVaffensive
p2244
I1675
sVeye
p2245
I812
sVtakes
p2246
I507
sVintense
p2247
I2712
sVcontains
p2248
I864
sVcharge
p2249
I1298
sVtruble
p2250
I3129
sVtought
p2251
I2025
sVpaterson
p2252
I344
sVtaken
p2253
I139
sVmagaizines
p2254
I2048
sVkick
p2255
I3808
sVminor
p2256
I1441
sVmore
p2257
I119
sVteen
p2258
I803
sVdoor
p2259
I1769
sVknows
p2260
I878
sVstrange
p2261
I2589
sVcompany
p2262
I1312
sVsensored
p2263
I2396
sVexcuse
p2264
I2559
sVcontrolling
p2265
I3026
sVbasically
p2266
I1173
sVparticular
p2267
I856
sVknown
p2268
I771
sVcusing
p2269
I3117
sVglad
p2270
I3130
sVtown
p2271
I981
sVrespected
p2272
I2907
sVkeeping
p2273
I700
sVpleasing
p2274
I3046
sVdebates
p2275
I1653
sVhour
p2276
I2629
sVshielded
p2277
I3781
sVscience
p2278
I1853
sVshelves
p2279
I81
sVdramatically
p2280
I3822
sVoffended
p2281
I183
sVremain
p2282
I857
sVparagraph
p2283
I2355
sVnine
p2284
I2560
sVsent
p2285
I1775
sVlearn
p2286
I163
sVmale
p2287
I2258
sVrevealed
p2288
I3242
sVhistory
p2289
I267
sVbeautiful
p2290
I1359
sVcompare
p2291
I2356
sVprompt
p2292
I3258
sVstated
p2293
I885
sVcorrectness
p2294
I3695
sVvoilence
p2295
I3449
sVsectioned
p2296
I2701
sVshare
p2297
I907
sVaccept
p2298
I973
sVstates
p2299
I997
sVprotective
p2300
I2538
sVprotects
p2301
I2702
sV'offensive
p2302
I482
sVsense
p2303
I605
sVstation
p2304
I1413
sVdisliked
p2305
I2687
sVdress
p2306
I2259
sVbiography
p2307
I3622
sVreputation
p2308
I2640
sV!
p2309
I269
sVinformation
p2310
I209
sVneeds
p2311
I407
sVt.v
p2312
I1702
sVcourt
p2313
I3506
sVgoal
p2314
I2213
sVawkward
p2315
I3623
sVrather
p2316
I561
sVplans
p2317
I2480
sVacts
p2318
I1082
sVutilize
p2319
I3436
sVstayed
p2320
I2115
sVfame
p2321
I3246
sVmusice
p2322
I2703
sVdisturbed
p2323
I2260
sV'banned
p2324
I3437
sVinfluences
p2325
I1512
sVexpecting
p2326
I3443
sVexplains
p2327
I3784
sV'not
p2328
I3291
sVshouldnt
p2329
I468
sVokay
p2330
I410
sVtried
p2331
I1037
sVrude
p2332
I1095
sVadvice
p2333
I2630
sVsneak
p2334
I3438
sVquestioning
p2335
I2631
sVreflect
p2336
I1740
sVreplace
p2337
I2229
sVtries
p2338
I1942
sVplane
p2339
I3259
sVdirector
p2340
I3260
sVblood
p2341
I1168
sVcoming
p2342
I780
sVethics
p2343
I3109
sVa
p2344
I9
sVrefuse
p2345
I2481
sVshort
p2346
I1574
sVloud
p2347
I1550
sVsence
p2348
I2059
sVanytime
p2349
I1943
sV)
p2350
I760
sVresponsibility
p2351
I908
sVmedia
p2352
I248
sVpleasure
p2353
I1558
sVdream
p2354
I1616
sVplaying
p2355
I985
sVpassages
p2356
I2797
sVabortions
p2357
I2588
sVhelp
p2358
I216
sVuncensored
p2359
I705
sVgrammer
p2360
I3551
sVdeveloped
p2361
I2549
sVartwork
p2362
I3097
sVsoon
p2363
I824
sVtrade
p2364
I3261
sVheld
p2365
I902
sVisnt
p2366
I1442
sVpaper
p2367
I739
sVthrough
p2368
I259
sVelementry
p2369
I3030
sVsigns
p2370
I1590
sVlittler
p2371
I2893
sVsuffer
p2372
I2357
sVits
p2373
I142
sVok.
p2374
I1977
sVmember
p2375
I1874
sVstyle
p2376
I948
sVrapidly
p2377
I3262
sVcensured
p2378
I2191
sVactually
p2379
I457
sVlate
p2380
I1492
sVharmless
p2381
I1575
sVindividuals
p2382
I860
sVsystems
p2383
I1374
sVdisagrees
p2384
I3133
sVradical
p2385
I2707
sVbout
p2386
I2415
sVgovernments
p2387
I2985
sVmight
p2388
I128
sVwritters
p2389
I3134
sVhurting
p2390
I1045
sVsomeone
p2391
I95
sVsomebody
p2392
I525
sVcalm
p2393
I1624
sVdisrespectful
p2394
I3032
sVseeking
p2395
I3033
sVfood
p2396
I1412
sVpropose
p2397
I2799
sVsocially
p2398
I3626
sVencouraging
p2399
I3696
sVwalls
p2400
I3627
sVoffensives
p2401
I3440
sVcommunities
p2402
I2026
sVcomplain
p2403
I671
sVviewers
p2404
I1105
sVmystery
p2405
I1337
sVeasily
p2406
I602
sVeverytime
p2407
I1313
sValways
p2408
I187
sVpresented
p2409
I3388
sVsole
p2410
I3505
sVlibraires
p2411
I2706
sVswimsuit
p2412
I2800
sVpayed
p2413
I2910
sVhabits
p2414
I2358
sVstopped
p2415
I1324
sVeager
p2416
I2818
sVturns
p2417
I2539
sVfound
p2418
I147
sVrepeating
p2419
I2632
sVlifestyles
p2420
I2911
sVheavy
p2421
I1542
sVreactions
p2422
I3264
sVharm
p2423
I940
sVeveryone
p2424
I98
sVmental
p2425
I2166
sVgeneration
p2426
I672
sVhouse
p2427
I843
sVhard
p2428
I377
sVidea
p2429
I266
sVused
p2430
I339
sVgun
p2431
I1926
sVfinish
p2432
I1697
sVexpect
p2433
I1117
sV'young
p2434
I3788
sVbeyond
p2435
I1787
sVevent
p2436
I1411
sVreally
p2437
I155
sVapproprite
p2438
I2646
sVdivide
p2439
I3178
sValcohol
p2440
I848
sVblacks
p2441
I2061
sVsolved
p2442
I2050
sVsince
p2443
I611
sVpublish
p2444
I1277
sVresearch
p2445
I573
sVacting
p2446
I1831
sVadmired
p2447
I3966
sVsafety
p2448
I1476
sVlife-changing
p2449
I3265
sVprint
p2450
I2359
sVlearners
p2451
I3629
sVissue
p2452
I494
sVoccurs
p2453
I2263
sVsutible
p2454
I3543
sVbye
p2455
I3676
sVdefinately
p2456
I2432
sVbelief
p2457
I1060
sVdirt
p2458
I2912
sVupon
p2459
I620
sVdealt
p2460
I3149
sVstory
p2461
I283
sVfactual
p2462
I1930
sVhouses
p2463
I2563
sVreason
p2464
I165
sVbase
p2465
I2309
sVmembers
p2466
I1634
sVimagine
p2467
I820
sVask
p2468
I364
sVteach
p2469
I354
sVbeginning
p2470
I2167
sVthrown
p2471
I1083
sVdefinition
p2472
I1511
sVowners
p2473
I2062
sVbenefits
p2474
I2633
sVservice
p2475
I2233
sVcomputers
p2476
I974
sVterrible
p2477
I958
sVrack
p2478
I2268
sVamerican
p2479
I1376
sVprejudice
p2480
I2217
sVthreat
p2481
I3791
sVtwenty
p2482
I1832
sVdo't
p2483
I3266
sVlawsuits
p2484
I3189
sVmajor
p2485
I930
sVdont
p2486
I145
sVnon-fiction
p2487
I2222
sVfeel
p2488
I161
sVrelate
p2489
I1025
sVnumber
p2490
I1061
sVfeet
p2491
I3792
sVinstances
p2492
I1635
sVsmaller
p2493
I2425
sVdone
p2494
I431
sVinapproiate
p2495
I3417
sVmiss
p2496
I1543
sVguess
p2497
I1017
sVheads
p2498
I1264
sVintroduction
p2499
I2802
sVtogether
p2500
I788
sVbay
p2501
I2965
sVthreatening
p2502
I2482
sVleast
p2503
I456
sVtradition
p2504
I2895
sV@person
p2505
I205
sVbelongs
p2506
I1850
sVwonderful
p2507
I1124
sVstatement
p2508
I941
sVsware
p2509
I3793
sVessays
p2510
I2803
sVhundred
p2511
I1703
sVstore
p2512
I450
sVobservations
p2513
I1066
sVselling
p2514
I1278
sVoption
p2515
I1084
sVrelationship
p2516
I3268
sVbehind
p2517
I745
sVinappropraite
p2518
I2285
sVpark
p2519
I3630
sVimmediate
p2520
I3269
sVpart
p2521
I332
sVauthors
p2522
I330
sVgruesome
p2523
I1978
sValbums
p2524
I3445
sVbelieve
p2525
I113
sVunrealistic
p2526
I2804
sVdont't
p2527
I2805
sVimformation
p2528
I3446
sVkind
p2529
I225
sVgrew
p2530
I1414
sVtelivtion
p2531
I3653
sVgotten
p2532
I1204
sVyouth
p2533
I696
sVdetermined
p2534
I2806
sVcontrary
p2535
I3036
sVsupposed
p2536
I868
sVinsulted
p2537
I3135
sVtoward
p2538
I1617
sVtreated
p2539
I982
sVdeciding
p2540
I2310
sVoutta
p2541
I3631
sVuncomfortable
p2542
I1206
sVwasnt
p2543
I1945
sVcensorships
p2544
I1777
sVfights
p2545
I1360
sVages
p2546
I473
sVbasicly
p2547
I2807
sVcencoring
p2548
I3599
sVviolating
p2549
I2725
sValike
p2550
I1443
sVcategorized
p2551
I3632
sV-then
p2552
I3866
sVvulnerable
p2553
I2564
sVsell
p2554
I1091
sVratings
p2555
I740
sVbuilt
p2556
I1833
sVdepending
p2557
I1054
sVself
p2558
I446
sValso
p2559
I109
sVuseless
p2560
I1788
sVsomtimes
p2561
I3270
sVfinding
p2562
I697
sVplay
p2563
I606
sVtowards
p2564
I612
sVwarnings
p2565
I3137
sVquote
p2566
I680
sVvictim
p2567
I2291
sVsets
p2568
I3065
sVreach
p2569
I647
sVbreaking
p2570
I2214
sVreact
p2571
I1254
sVmost
p2572
I138
sVexperiences
p2573
I681
sVplan
p2574
I1771
sVsong/book/movie
p2575
I3867
sVdiferent
p2576
I2914
sVnothing
p2577
I246
sVaccepting
p2578
I2264
sVwisdom
p2579
I3902
sVextremely
p2580
I1029
sVstands
p2581
I1861
sVreligous
p2582
I3842
sVaffended
p2583
I3078
sV@percent
p2584
I1378
sVopions
p2585
I3038
sVclear
p2586
I1194
sVsometimes
p2587
I278
sVcover
p2588
I674
sVinmature
p2589
I3471
sVartistic
p2590
I2809
sVclean
p2591
I1234
sVusual
p2592
I3448
sVammendment
p2593
I3785
sVwording
p2594
I3271
sVparticularly
p2595
I3633
sVrebels
p2596
I3634
sVfond
p2597
I2219
sVcelebrities
p2598
I2311
sVlearing
p2599
I3758
sVbusinesses
p2600
I2719
sVcds
p2601
I1577
sVcarefully
p2602
I2168
sVnewest
p2603
I2834
sVfine
p2604
I617
sVfind
p2605
I83
sVimpact
p2606
I931
sVsayin
p2607
I2810
sVconvinced
p2608
I3794
sVruin
p2609
I983
sVwriter
p2610
I862
sVdistributed
p2611
I2635
sVunhappy
p2612
I2361
sVfreedoms
p2613
I1004
sVuncut
p2614
I3795
sVpretty
p2615
I544
sVlibraies
p2616
I1719
sVdiscuss
p2617
I1749
sVhip
p2618
I3139
sVhis
p2619
I265
sVhit
p2620
I1510
sVpermission
p2621
I1005
sVoccuring
p2622
I2786
sVbanned
p2623
I255
sVexpress
p2624
I443
sVgrocery
p2625
I2116
sVtoddlers
p2626
I3829
sVfamous
p2627
I1073
sVfeels
p2628
I836
sVhid
p2629
I3798
sVactions
p2630
I712
sVn-word
p2631
I3099
sVduring
p2632
I825
sVfrightening
p2633
I3273
sVhim
p2634
I469
sVcatches
p2635
I2567
sVadulthood
p2636
I3799
sVdeems
p2637
I2325
sVlibrarie
p2638
I844
sVcry
p2639
I1898
sVseperated
p2640
I1531
sVassuming
p2641
I3681
sVremove
p2642
I173
sVstored
p2643
I2658
sVcommon
p2644
I746
sVactivity
p2645
I1578
sVnaughty
p2646
I1956
sVseperates
p2647
I3274
sVwrote
p2648
I648
sVseventeen
p2649
I2117
sVset
p2650
I536
sVart
p2651
I635
sVcreator
p2652
I2483
sVthrowing
p2653
I2915
sVcertin
p2654
I1160
sVsex
p2655
I288
sVculture
p2656
I593
sVsee
p2657
I92
sVindividual
p2658
I571
sVdumb
p2659
I1949
sVare
p2660
I18
sVprotecting
p2661
I2659
sVfellow
p2662
I1842
sVclose
p2663
I1001
sVlangauge
p2664
I3801
sVdesigned
p2665
I3489
sVhorrid
p2666
I3451
sVlauguage
p2667
I3366
sVpictures
p2668
I489
sVwow
p2669
I3452
sVcurrently
p2670
I2811
sVplease
p2671
I527
sVlibraries
p2672
I53
sVfans
p2673
I3637
sVwon
p2674
I2568
sVvarious
p2675
I1444
sVmanagers
p2676
I2144
sVgrandparents
p2677
I2240
sVprobably
p2678
I358
sVburned
p2679
I1493
sVnumerous
p2680
I1395
sVcorruption
p2681
I3140
sVthrive
p2682
I3161
sVrisks
p2683
I3796
sVavailable
p2684
I666
sVrecently
p2685
I1396
sVcreating
p2686
I1655
sVmissing
p2687
I1789
sVtargeted
p2688
I3275
sVsold
p2689
I1217
sVattention
p2690
I555
sVoutfit
p2691
I3805
sVshould'nt
p2692
I1192
sVopposition
p2693
I3806
sVgenre
p2694
I837
sVclueless
p2695
I2161
sVboth
p2696
I575
sVdepicts
p2697
I2974
sVlast
p2698
I492
sVinfluential
p2699
I1872
sVthow
p2700
I3848
sVoffending
p2701
I559
sVminorities
p2702
I3454
sVsensitive
p2703
I1790
sVbecame
p2704
I1514
sVpercieve
p2705
I3639
sValot
p2706
I292
sVforgotten
p2707
I1618
sVgoverment
p2708
I1460
sVfocused
p2709
I2318
sVapprove
p2710
I926
sVfinds
p2711
I349
sVprobaly
p2712
I3467
sVliked
p2713
I903
sVpoint
p2714
I236
sVreasons
p2715
I313
sVembarrassing
p2716
I3782
sVaddress
p2717
I3220
sVcommunity
p2718
I493
sVsimply
p2719
I352
sVlikes
p2720
I515
sVconsideration
p2721
I1905
sVraw
p2722
I3040
sVthroughout
p2723
I799
sVmission
p2724
I3132
sVprovacative
p2725
I2118
sVdescribed
p2726
I1704
sVraise
p2727
I1559
sVhumorous
p2728
I3940
sVcreate
p2729
I631
sVunderage
p2730
I2169
sVpolitical
p2731
I1445
sVdue
p2732
I474
sVwhos
p2733
I2418
sVhitting
p2734
I2814
sVwhom
p2735
I1397
sVbuisness
p2736
I1791
sVdescribes
p2737
I2569
sVcomplicated
p2738
I3231
sVmeeting
p2739
I2170
sVempty
p2740
I935
sVfirm
p2741
I2815
sVlived
p2742
I1792
sVgay
p2743
I3640
sVsending
p2744
I3390
sVfire
p2745
I2816
sVcrack
p2746
I2884
sVgas
p2747
I3641
sVelse
p2748
I148
sVmoment
p2749
I1560
sVraces
p2750
I821
sVlives
p2751
I414
sVdemand
p2752
I1862
sVdespite
p2753
I2194
sVsurveys
p2754
I3895
sVinapporiate
p2755
I2363
sVintriguing
p2756
I3456
sVstolen
p2757
I3807
sVlook
p2758
I159
sVleaft
p2759
I2846
sVstraight
p2760
I3276
sVholocaust
p2761
I2171
sVbrilliant
p2762
I3960
sVwhile
p2763
I335
sVsexuality
p2764
I1636
sVreplaced
p2765
I2364
sVhomework
p2766
I1952
sVbehavior
p2767
I1255
sVfun
p2768
I425
sVguide
p2769
I2312
sVtheres
p2770
I734
sVexclude
p2771
I2099
sVstyles
p2772
I1508
sVthoes
p2773
I1515
sVhoping
p2774
I3278
sVinnapropiate
p2775
I3047
sVfunded
p2776
I3457
sVoverlooked
p2777
I3458
sVlbrary
p2778
I3279
sVrip
p2779
I3809
sVencountered
p2780
I3642
sVdisappointing
p2781
I3810
sVreads
p2782
I576
sVitself
p2783
I845
sVoffendid
p2784
I3280
sVconcent
p2785
I2286
sVready
p2786
I865
sVrid
p2787
I317
sVethnicity
p2788
I2419
sVmagasins
p2789
I3643
sVfunny
p2790
I851
sVregulate
p2791
I3081
sVinapporite
p2792
I2916
sVanymore
p2793
I644
sVgrant
p2794
I3459
sVmanditory
p2795
I3358
sVbelong
p2796
I1477
sVsubliminal
p2797
I3460
sVread
p2798
I37
sVcomprimise
p2799
I3042
sVoffenisve
p2800
I2917
sVshouldint
p2801
I3185
sVpeoples
p2802
I590
sVsurvey
p2803
I3064
sVadvise
p2804
I2710
sVrelatively
p2805
I3701
sVgestures
p2806
I3644
sVconflict
p2807
I1193
sVhigher
p2808
I1256
sVdevelopment
p2809
I2441
sVhallway
p2810
I2918
sVliterature
p2811
I342
sVclassmates
p2812
I2602
sVlie
p2813
I1793
sVassignment
p2814
I2365
sVbookstores
p2815
I3825
sVoverweight
p2816
I3462
sVprotesters
p2817
I3852
sVviewing
p2818
I886
sVlevels
p2819
I1459
sVuses
p2820
I1099
sVpurpose
p2821
I520
sVappreciated
p2822
I3912
sVrecent
p2823
I1677
sVdark
p2824
I1455
sVlower
p2825
I1742
sVtask
p2826
I1834
sVolder
p2827
I326
sVpersuasive
p2828
I1807
sVanybody
p2829
I564
sVobviously
p2830
I1074
sVperson
p2831
I91
sVeles
p2832
I2064
sVtheatres
p2833
I2817
sVorganization
p2834
I1835
sVstating
p2835
I1446
sVknow
p2836
I99
sVabilities
p2837
I3811
sVpossibilty
p2838
I3910
sVlistening
p2839
I334
sVobserved
p2840
I2092
sVaginst
p2841
I3724
sVignoring
p2842
I3527
sVdistracting
p2843
I2636
sVshape
p2844
I1428
sVquestions
p2845
I879
sVusing
p2846
I756
sVuseful
p2847
I1384
sValternative
p2848
I2172
sVunappropriate
p2849
I2367
sVopinionless
p2850
I3922
sVletting
p2851
I638
sVopinionated
p2852
I2245
sVcut
p2853
I1246
sVveiwed
p2854
I3464
sVreaders
p2855
I392
sVhated
p2856
I2637
sVworkers
p2857
I2420
sVadvertisements
p2858
I1591
sVcatagorized
p2859
I3789
sVsource
p2860
I923
sVcausing
p2861
I1752
sVparents
p2862
I108
sVlocation
p2863
I1901
sVcrying
p2864
I2485
sVschoolwork
p2865
I2919
sVhates
p2866
I2368
sVbuild
p2867
I1979
sV...
p2868
I621
sVcustomers
p2869
I724
sVvictims
p2870
I3281
sVcomplains
p2871
I1863
sVlibrairy
p2872
I2613
sVbig
p2873
I310
sVshowing
p2874
I975
sVjudgement
p2875
I1495
sVmatters
p2876
I1292
sVgame
p2877
I807
sVtruely
p2878
I1561
sVprivate
p2879
I1985
sVbit
p2880
I708
sVbloody
p2881
I3224
sVprojects
p2882
I1678
sVlike
p2883
I48
sVseperate
p2884
I751
sVsuccess
p2885
I2660
sVsincerely
p2886
I2870
sVinnapropriate
p2887
I594
sVignore
p2888
I582
sVuproar
p2889
I2220
sVcontinue
p2890
I1062
sVpopular
p2891
I959
sVessential
p2892
I2421
sVveiws
p2893
I1773
sVscare
p2894
I3311
sVoften
p2895
I540
sVabsolutely
p2896
I1205
sVfathers
p2897
I1946
sVcreation
p2898
I2313
sVsome
p2899
I41
sVback
p2900
I237
sVunderstood
p2901
I3813
sVtrends
p2902
I2920
sVexperienced
p2903
I1377
sVexamples
p2904
I1106
sVsight
p2905
I2065
sVcurious
p2906
I1149
sVloses
p2907
I3853
sVourselves
p2908
I909
sVgradually
p2909
I3141
sVand/or
p2910
I932
sVdescribing
p2911
I3465
sVdull
p2912
I2573
sVaffects
p2913
I1679
sVdecision
p2914
I549
sVshall
p2915
I2042
sVbenefit
p2916
I1323
sVreligion
p2917
I384
sVbehave
p2918
I2266
sVeliminate
p2919
I1496
sVtends
p2920
I3816
sV@money
p2921
I2527
sVt
p2922
I2303
sVbe
p2923
I12
sVsixteen
p2924
I2232
sVmeasures
p2925
I3138
sVrun
p2926
I809
sVremembered
p2927
I3044
sVbookshelves
p2928
I3142
sVagreement
p2929
I2066
sVrefused
p2930
I3143
sVstep
p2931
I1235
sVfee
p2932
I2722
sVnowhere
p2933
I3283
sVrelating
p2934
I2067
sVby
p2935
I97
sVvivid
p2936
I3144
sVfaith
p2937
I1619
sVcautious
p2938
I3817
sVcertificate
p2939
I3297
sVwouldnt
p2940
I706
sVam
p2941
I275
sVtruck
p2942
I3494
sVdrama
p2943
I1669
sVdeserves
p2944
I1592
sVrange
p2945
I1398
sVinvolving
p2946
I3360
sVexperince
p2947
I2808
sVhatred
p2948
I2029
sVclassics
p2949
I2120
sVconsequently
p2950
I3045
sVblock
p2951
I938
sVseeing
p2952
I369
sVletter
p2953
I1452
sVgarbage
p2954
I2068
sVlibrarians
p2955
I965
sVinto
p2956
I162
sVwithin
p2957
I652
sVappropriate
p2958
I250
sVmaster
p2959
I3900
sVfactor
p2960
I2032
sVlesson
p2961
I1006
sVrows
p2962
I3145
sVgursome
p2963
I3645
sVeleven
p2964
I2497
sVwitchcraft
p2965
I2625
sVquestion
p2966
I464
sVcherished
p2967
I3962
sVlong
p2968
I406
sVeventhough
p2969
I2572
sVsuit
p2970
I2486
sVforward
p2971
I2638
sV:
p2972
I497
sVsections
p2973
I350
sVathlete
p2974
I3300
sVopens
p2975
I2069
sVhimself
p2976
I1705
sVelsewhere
p2977
I1774
sVrelaxed
p2978
I2819
sVsinger
p2979
I1882
sVboys
p2980
I1721
sVproperly
p2981
I2315
sVreed
p2982
I2121
sVlibrary
p2983
I39
sVnewer
p2984
I3470
sVhopes
p2985
I3986
sVline
p2986
I754
sVjunior
p2987
I2221
sVdecades
p2988
I2574
sVdirected
p2989
I2174
sV'you
p2990
I1621
sVgeting
p2991
I2070
sVconsist
p2992
I2714
sVup
p2993
I106
sVus
p2994
I141
sVur
p2995
I2267
sVplanet
p2996
I1891
sVmaturity
p2997
I834
sV're
p2998
I398
sVmature
p2999
I328
sVsimilar
p3000
I1280
sVcalled
p3001
I512
sVindividuality
p3002
I1447
sVconstant
p3003
I2639
sVadults
p3004
I194
sVstick
p3005
I1448
sVdefined
p3006
I3285
sVflow
p3007
I2192
sVdemeaning
p3008
I3251
sVinfluence
p3009
I597
sVdoesn
p3010
I2921
sVrediculous
p3011
I2422
sVdeprive
p3012
I1981
sVsingle
p3013
I747
sVwarning
p3014
I1349
sVthier
p3015
I560
sVtennagers
p3016
I3286
sVdenying
p3017
I1982
sVancestors
p3018
I3472
sVlibrays
p3019
I3287
sVdeside
p3020
I2922
sVamounts
p3021
I1947
sVfixing
p3022
I3288
sVtheirselves
p3023
I3894
sVpeace
p3024
I1043
sVhappining
p3025
I3945
sVpreventing
p3026
I2487
sVpoliticians
p3027
I3473
sVdefinitely
p3028
I1361
sVactors
p3029
I1461
sVtheology
p3030
I3541
sVcencor
p3031
I2071
sVnice
p3032
I797
sVexplaining
p3033
I3649
sVdraw
p3034
I1281
sVmusician
p3035
I2176
sVwoud
p3036
I3680
sV'should
p3037
I3650
sVproblems
p3038
I434
sVprovokative
p3039
I2642
sVprepared
p3040
I2177
sVhelping
p3041
I1399
sVmeaning
p3042
I616
sVmatieral
p3043
I3381
sVallowing
p3044
I662
sVspeach
p3045
I2643
sVposters
p3046
I2715
sVhair
p3047
I2575
sVdiffent
p3048
I2716
sVsides
p3049
I1362
sVago
p3050
I933
sVland
p3051
I3289
sVhappier
p3052
I2423
sVperfer
p3053
I3756
sV-that
p3054
I3610
sVage
p3055
I133
sVrequired
p3056
I1026
sVwalked
p3057
I1063
sVlogical
p3058
I2460
sVopposing
p3059
I2498
sVlying
p3060
I3797
sVteachings
p3061
I3757
sVfar
p3062
I522
sVignorant
p3063
I1282
sVbare
p3064
I3800
sVhaving
p3065
I272
sVonce
p3066
I356
sVessay
p3067
I725
sVportraying
p3068
I3651
sVminors
p3069
I1837
sVadvisory
p3070
I2488
sVissued
p3071
I3820
sVresults
p3072
I2489
sVenjoyable
p3073
I1265
sVstops
p3074
I2490
sVgo
p3075
I104
sV@date
p3076
I444
sVissues
p3077
I798
sVauther
p3078
I2234
sVshouldent
p3079
I2369
sVconclution
p3080
I3083
sVconcerned
p3081
I1181
sVyoung
p3082
I164
sVsend
p3083
I1314
sVsuits
p3084
I2923
sVliterary
p3085
I1497
sVuniqueness
p3086
I3290
sVoutlooks
p3087
I2491
sVhelps
p3088
I709
sVexcluded
p3089
I2924
sVemployees
p3090
I3558
sVpassion
p3091
I2510
sVdislike
p3092
I934
sVinclude
p3093
I892
sVfriendly
p3094
I2316
sVresources
p3095
I1059
sVmagizens
p3096
I3484
sVrandom
p3097
I2108
sVpersuade
p3098
I3072
sVexpressing
p3099
I1425
sVoutside
p3100
I1052
sVlisted
p3101
I2041
sVcontinues
p3102
I1902
sVwishes
p3103
I2718
sVputting
p3104
I632
sVchooses
p3105
I1916
sVtelling
p3106
I656
sVdrinking
p3107
I1350
sVcontinued
p3108
I2493
sVcategories
p3109
I1593
sVnotey
p3110
I3147
sVentire
p3111
I920
sVmagic
p3112
I1903
sVrespectful
p3113
I2645
sVliberary
p3114
I2424
sVgender
p3115
I1416
sVbutton
p3116
I3475
sVgettin
p3117
I2494
sVexcessive
p3118
I3850
sVracy
p3119
I2495
sVtry
p3120
I230
sVrace
p3121
I436
sVavoiding
p3122
I2986
sVride
p3123
I2123
sVunsatisfied
p3124
I3267
sVsomeday
p3125
I1427
sVpretend
p3126
I2317
sVeverythings
p3127
I2822
sVwrestling
p3128
I3150
sVjump
p3129
I2925
sVofensive
p3130
I3476
sVvideo
p3131
I518
sVtraveling
p3132
I3151
sVpicked
p3133
I790
sVpornography
p3134
I1127
sVcat
p3135
I3394
sVclick
p3136
I3477
sVplays
p3137
I1794
sVbusiness
p3138
I692
sVgiving
p3139
I942
sVopition
p3140
I3818
sVexpressed
p3141
I1904
sVaccess
p3142
I438
sVbelow
p3143
I3857
sVwaiting
p3144
I2030
sVfive-year
p3145
I3967
sVcrossed
p3146
I2647
sV;
p3147
I222
sVbody
p3148
I910
sVcatholic
p3149
I3837
sVled
p3150
I3292
sVchose
p3151
I764
sVdesires
p3152
I1744
sVupsetting
p3153
I2926
sVpushing
p3154
I2720
sVdiagree
p3155
I3823
sVresearchers
p3156
I3119
sVrapes
p3157
I3942
sVhighly
p3158
I1316
sVfollowing
p3159
I1478
sVexplore
p3160
I1306
sVobjects
p3161
I1338
sVlet
p3162
I175
sVothers
p3163
I157
sVsing
p3164
I1169
sVsafer
p3165
I2370
sVfifteen
p3166
I3294
sVextreme
p3167
I966
sVgreat
p3168
I277
sVengage
p3169
I2823
sVreceive
p3170
I3295
sVinvolved
p3171
I1150
sVlarger
p3172
I3152
sVreguardless
p3173
I3683
sVleaving
p3174
I1865
sVproducts
p3175
I1075
sVgrandchild
p3176
I3296
sVcousins
p3177
I3194
sVopinion
p3178
I168
sVproof
p3179
I3826
sVmakes
p3180
I329
sVwrites
p3181
I1180
sVinvolves
p3182
I2824
sVthats
p3183
I218
sVnamed
p3184
I1984
sVviolents
p3185
I2927
sVsheild
p3186
I2721
sVdanger
p3187
I1417
sVwin
p3188
I3478
sVshevles
p3189
I1479
sVclassrooms
p3190
I2576
sVoffends
p3191
I417
sVoutcomes
p3192
I2825
sVdecrease
p3193
I1637
sVnames
p3194
I1468
sVapply
p3195
I1866
sVsugar
p3196
I3548
sVtools
p3197
I1681
sVdosent
p3198
I2122
sVstanding
p3199
I2496
sVuse
p3200
I219
sVmite
p3201
I2301
sVfrom
p3202
I38
sVfigure
p3203
I1506
sVinspiration
p3204
I2593
sV&
p3205
I2723
sVremains
p3206
I3479
sVillegal
p3207
I1405
sVnext
p3208
I343
sVfew
p3209
I331
sVinfomation
p3210
I2031
sVdoubt
p3211
I1594
sVdiffrence
p3212
I3646
sVlock
p3213
I2827
sVtoy
p3214
I3697
sVthemselves
p3215
I304
sVsimpler
p3216
I2663
sVforefathers
p3217
I3298
sVreflects
p3218
I2928
sVsort
p3219
I624
sVwhant
p3220
I3648
sVstarted
p3221
I791
sVbecomes
p3222
I1325
sVwriten
p3223
I1772
sVabout
p3224
I45
sVcarrying
p3225
I2072
sVashamed
p3226
I3049
sVbaby
p3227
I1182
sVrare
p3228
I2736
sVrisque
p3229
I3480
sVwomen
p3230
I714
sVcustomer
p3231
I1906
sVmajority
p3232
I1132
sVaccount
p3233
I2371
sVanimals
p3234
I1533
sVthis
p3235
I51
sVchallenge
p3236
I1944
sVoh
p3237
I3121
sVreporters
p3238
I3272
sVanywhere
p3239
I772
sVobvious
p3240
I1986
sVpublications
p3241
I2826
sVthim
p3242
I1534
sVmeet
p3243
I1706
sVclosing
p3244
I3050
sVdidnt
p3245
I813
sVviloence
p3246
I3051
sVcontrol
p3247
I480
sVpatron
p3248
I3827
sVprocess
p3249
I1064
sVdiscussed
p3250
I1739
sVoffensve
p3251
I3654
sVpurposes
p3252
I1595
sVpieces
p3253
I954
sVhigh
p3254
I447
sVeffectively
p3255
I2648
sVetc..
p3256
I2566
sVpulling
p3257
I1987
sVsomething
p3258
I77
sV'sex
p3259
I3301
sVsought
p3260
I2929
sVfounding
p3261
I2708
sVconformism
p3262
I3786
sVrape
p3263
I2033
sVeducational
p3264
I641
sVselfs
p3265
I2040
sVdemocracy
p3266
I3655
sVsit
p3267
I735
sVdestroying
p3268
I1682
sVholds
p3269
I1387
sVstruggles
p3270
I1449
sVlocated
p3271
I1948
sVvaries
p3272
I1838
sVanimal
p3273
I1907
sVinstead
p3274
I426
sVmysteries
p3275
I2828
sVcomedy
p3276
I1462
sVimmoral
p3277
I1795
sVstand
p3278
I615
sVfare
p3279
I2930
sVblocks
p3280
I2499
sVcencorship
p3281
I1076
sVfarm
p3282
I2319
sVwatch
p3283
I135
sVroam
p3284
I3011
sVcollection
p3285
I3657
sVbothered
p3286
I1722
sVabuse
p3287
I1143
sVwrist
p3288
I3828
sVfits
p3289
I1908
sVmonitoring
p3290
I3227
sVprushior
p3291
I3550
sVpurely
p3292
I3160
sV'inappropriate
p3293
I3080
sVlight
p3294
I1868
sVcounter
p3295
I1596
sVlines
p3296
I2649
sVhonestly
p3297
I826
sVallow
p3298
I361
sVfurious
p3299
I2650
sVdiscussion
p3300
I1784
sVavalible
p3301
I2124
sVsix
p3302
I1745
sVinforced
p3303
I3153
sVmove
p3304
I574
sVencouraged
p3305
I2407
sVoutlook
p3306
I1614
sVrebellious
p3307
I3482
sVknowledgable
p3308
I2181
sVproduced
p3309
I2073
sVprinciples
p3310
I3535
sVafterall
p3311
I3483
sVincluding
p3312
I1096
sVlooks
p3313
I658
sVmentioned
p3314
I1480
sVect.
p3315
I893
sVthigs
p3316
I3304
sVbunch
p3317
I1247
sVperfect
p3318
I689
sVsuperior
p3319
I3154
sValway
p3320
I2401
sVchosen
p3321
I2269
sVshold
p3322
I3306
sVseperation
p3323
I3155
sVpoeple
p3324
I1030
sVwould'nt
p3325
I1293
sVcontraversy
p3326
I2931
sVwilling
p3327
I1912
sVchoose
p3328
I276
sV@time
p3329
I2651
sVhobby
p3330
I2500
sVcriminal
p3331
I2372
sVspreading
p3332
I3608
sVdad
p3333
I924
sVcuss
p3334
I872
sVruined
p3335
I3720
sVgreater
p3336
I1988
sVesle
p3337
I2932
sVmaterial
p3338
I102
sVearn
p3339
I3307
sVpersepective
p3340
I3946
sVmention
p3341
I3658
sVdisappointed
p3342
I3009
sVbothering
p3343
I2502
sVkiss
p3344
I3308
sVhands
p3345
I545
sVfront
p3346
I936
sVliable
p3347
I3990
sVday
p3348
I273
sVarticles
p3349
I722
sVmysterious
p3350
I3383
sVintelligent
p3351
I2503
sVcovering
p3352
I3364
sVlifetime
p3353
I1972
sVslide
p3354
I3487
sVdoesnt
p3355
I550
sVtruth
p3356
I608
sVprincesses
p3357
I3309
sVdisregard
p3358
I3661
sVaccounts
p3359
I2270
sVstock
p3360
I2178
sVrelize
p3361
I3039
sVhomeless
p3362
I2475
sVrascist
p3363
I3014
sVdoing
p3364
I242
sVadventure
p3365
I1741
sVstrip
p3366
I2350
sVstaying
p3367
I2342
sVrelated
p3368
I1351
sVsociety
p3369
I253
sVbooks
p3370
I19
sVthirteen
p3371
I1363
sVseparating
p3372
I3488
sVour
p3373
I94
sVdiffer
p3374
I2216
sVsexual
p3375
I399
sVwander
p3376
I2074
sVspecial
p3377
I781
sVout
p3378
I63
sVcategory
p3379
I3156
sVarguements
p3380
I2075
sVattend
p3381
I1867
sV'
p3382
I70
sVentertainment
p3383
I451
sVaside
p3384
I2972
sVmagizine
p3385
I1352
sVunlawful
p3386
I2934
sVchaos
p3387
I2426
sVappeals
p3388
I3029
sVwich
p3389
I2582
sVtanning
p3390
I3919
sVcause
p3391
I312
sVmath
p3392
I2840
sVcartoons
p3393
I1654
sVshut
p3394
I1151
sVipod
p3395
I1747
sVwatever
p3396
I3635
sVfourteen
p3397
I2373
sVrelease
p3398
I3199
sVcompletely
p3399
I415
sVect
p3400
I600
sVsurely
p3401
I2076
sVcomittee
p3402
I3662
sVconflicts
p3403
I2383
sVanyhow
p3404
I3157
sVsinging
p3405
I2577
sVscary
p3406
I955
sVprepare
p3407
I2107
sVhim/her
p3408
I1433
sVtheese
p3409
I2583
sVruins
p3410
I2389
sVcould
p3411
I76
sVtimes
p3412
I353
sVconversation
p3413
I3832
sVdepriving
p3414
I3106
sVhence
p3415
I3833
sVexplict
p3416
I3158
sVmankind
p3417
I2164
sVdistracted
p3418
I2351
sVpowerful
p3419
I1727
sVscene
p3420
I1183
sVowned
p3421
I2272
sVhey
p3422
I2793
sVsubmit
p3423
I3980
sVties
p3424
I3303
sVowner
p3425
I2273
sVcousin
p3426
I2608
sVquality
p3427
I2125
sVreference
p3428
I2077
sVstart
p3429
I286
sVunknown
p3430
I2427
sVvulgar
p3431
I595
sVsystem
p3432
I726
sVtheir
p3433
I46
sVattack
p3434
I3492
sVmindless
p3435
I2476
sVintelligence
p3436
I3493
sVperfectly
p3437
I1283
sVfinal
p3438
I1418
sVpainful
p3439
I2505
sVmisunderstood
p3440
I3834
sVinterests
p3441
I776
sVenforcement
p3442
I3312
sVstars
p3443
I3313
sVshelf
p3444
I115
sVsocieties
p3445
I3197
sVexactly
p3446
I477
sVdepressing
p3447
I3314
sVreflecting
p3448
I2727
sVgrandpa
p3449
I2274
sVbranches
p3450
I3732
sVraunchy
p3451
I3415
sVherself
p3452
I2127
sVinstitution
p3453
I2428
sVblind
p3454
I2545
sVvarieties
p3455
I2464
sVsteel
p3456
I3316
sVloved
p3457
I1007
sVwouldent
p3458
I3159
sVgaurdian
p3459
I2417
sVcerain
p3460
I3317
sVboring
p3461
I991
sVbother
p3462
I785
sVnon-offensive
p3463
I2179
sVbed
p3464
I2128
sVlimiting
p3465
I1517
sVclaim
p3466
I2129
sVappealing
p3467
I1687
sVeditors
p3468
I3576
sVloves
p3469
I1248
sVvisited
p3470
I2374
sVnegatively
p3471
I2556
sVproviding
p3472
I2584
sVbet
p3473
I2130
sVdescriptions
p3474
I3450
sVbehaviors
p3475
I2935
sVenforced
p3476
I1950
sVfalse
p3477
I1465
sVviewer
p3478
I1365
sVborrowing
p3479
I3581
sVteenagers
p3480
I445
sVcomfortable
p3481
I1133
sVcorrupt
p3482
I2390
sVactivites
p3483
I3835
sVnonfiction
p3484
I1498
sVhave
p3485
I22
sVdictate
p3486
I3666
sVneed
p3487
I132
sVoffens
p3488
I3836
sVapparently
p3489
I3057
sVclearly
p3490
I1092
sVviewed
p3491
I852
sVsings
p3492
I2936
sVdocuments
p3493
I1369
sVsmallest
p3494
I3638
sVinform
p3495
I1736
sVstudying
p3496
I2275
sVprobly
p3497
I3319
sVable
p3498
I150
sVuncalled
p3499
I3320
sVinstance
p3500
I808
sVahold
p3501
I1257
sVwhich
p3502
I217
sV@organization
p3503
I208
sVjail
p3504
I1421
sVeaither
p3505
I3329
sVworldwide
p3506
I3321
sVinnopropriate
p3507
I3495
sVunless
p3508
I528
sVbuissness
p3509
I2829
sVclash
p3510
I3838
sVnewpaper
p3511
I3496
sVwho
p3512
I107
sVharmful
p3513
I685
sVparenting
p3514
I1951
sVeight
p3515
I2180
sVhighschool
p3516
I1869
sVwhy
p3517
I111
sVoffened
p3518
I657
sVdeny
p3519
I1450
sV'adult
p3520
I2276
sVconsequences
p3521
I2320
sVpulled
p3522
I888
sVeachother
p3523
I2585
sVgather
p3524
I3058
sVupset
p3525
I546
sVquestioned
p3526
I2119
sVface
p3527
I1018
sVlooked
p3528
I736
sVcallers
p3529
I3667
sVthemsleves
p3530
I3840
sVse
p3531
I3969
sVnightmares
p3532
I2392
sVmovie
p3533
I122
sVbelived
p3534
I3498
sVskinny
p3535
I3059
sVnormally
p3536
I1339
sVfact
p3537
I348
sVson
p3538
I1357
sVimpression
p3539
I3499
sVbasketball
p3540
I3898
sVselection
p3541
I1046
sV'nigger
p3542
I2937
sVchances
p3543
I1518
sVtext
p3544
I1207
sVpleases
p3545
I2728
sVsupported
p3546
I2652
sVanyway
p3547
I778
sVconnect
p3548
I3034
sVbring
p3549
I627
sVfamilys
p3550
I3851
sVfear
p3551
I1258
sVgrusome
p3552
I2757
sVmagizines
p3553
I1107
sVdebate
p3554
I1144
sVstaff
p3555
I1208
sVoppurtunity
p3556
I2692
sVinspiring
p3557
I3061
sVpromote
p3558
I1347
sVbased
p3559
I466
sVknowledge
p3560
I306
sV(
p3561
I757
sVyoungest
p3562
I3824
sVdegrading
p3563
I3802
sVshould
p3564
I21
sVsurroundings
p3565
I2429
sVunable
p3566
I2288
sVtape
p3567
I1911
sVexperiencing
p3568
I3455
sVthousands
p3569
I949
sVhope
p3570
I362
sVmeant
p3571
I543
sVinsight
p3572
I2080
sVhandle
p3573
I619
sVbeable
p3574
I2653
sVlistened
p3575
I1120
sVwatching
p3576
I289
sVbeat
p3577
I1639
sVmainly
p3578
I1051
sVsimplest
p3579
I2966
sVoverall
p3580
I1097
sVlucky
p3581
I2078
sVinapropreate
p3582
I2832
sVrelegion
p3583
I3053
sVlistener
p3584
I2278
sVones
p3585
I355
sVwords
p3586
I191
sVwerent
p3587
I3500
sVinterpreted
p3588
I3830
sVrite
p3589
I2063
sVareas
p3590
I814
sVgray
p3591
I3501
sVevolution
p3592
I3502
sVcourse
p3593
I699
sVconditions
p3594
I3453
sVmarried
p3595
I3843
sVrapper
p3596
I2506
sVcalling
p3597
I1340
sVinfluenced
p3598
I988
sVstuff
p3599
I182
sV@location
p3600
I221
sVshe
p3601
I188
sVcontain
p3602
I430
sVgrab
p3603
I875
sVlimitations
p3604
I2942
sVgenerations
p3605
I765
sVview
p3606
I261
sVknowing
p3607
I618
sVrequirement
p3608
I2730
sVexists
p3609
I2654
sVnational
p3610
I1990
sVhumans
p3611
I937
sVlazy
p3612
I2967
sVshelfs
p3613
I372
sVcomputer
p3614
I853
sVprobley
p3615
I3336
sVinaproprate
p3616
I2833
sVcloser
p3617
I2034
sVextend
p3618
I3015
sVinsulting
p3619
I2279
sVrecord
p3620
I2225
sVrelgion
p3621
I3844
sVlabled
p3622
I2586
sVtend
p3623
I1236
sVwo
p3624
I421
sVstate
p3625
I986
sVidentification
p3626
I2035
sVclosed
p3627
I1871
sVhorrible
p3628
I741
sVcrude
p3629
I1353
sVstories
p3630
I427
sVneither
p3631
I1620
sVwoukd
p3632
I3305
sViot
p3633
I3442
sVbought
p3634
I2016
sVpublishers
p3635
I1657
sVends
p3636
I1535
sVhandful
p3637
I2854
sVability
p3638
I752
sVelders
p3639
I2762
sVopening
p3640
I3162
sVimportance
p3641
I2134
sVjoy
p3642
I2036
sVavid
p3643
I3229
sVshelf-
p3644
I1499
sVgrasp
p3645
I3123
sVjob
p3646
I915
sVkey
p3647
I1284
sVapproval
p3648
I2321
sVprecious
p3649
I2697
sVdistribution
p3650
I3507
sVmessed
p3651
I3031
sVmonitor
p3652
I1379
sVrestrictions
p3653
I822
sVhits
p3654
I3508
sVfigured
p3655
I3323
sVlimits
p3656
I682
sVcareer
p3657
I2135
sVprofanity
p3658
I816
sVtaking
p3659
I184
sVacknowledge
p3660
I2878
sVequal
p3661
I1134
sVdrug
p3662
I863
sVagree
p3663
I258
sVetc
p3664
I235
sVadmit
p3665
I1857
sVatleast
p3666
I1218
sVthang
p3667
I3509
sVpassing
p3668
I3673
sVseperating
p3669
I2943
sVmasses
p3670
I3485
sVotherwise
p3671
I1562
sVcomment
p3672
I2375
sVdetailed
p3673
I1893
sVstatues
p3674
I3674
sVextent
p3675
I994
sVconclude
p3676
I1598
sVwall
p3677
I2731
sVca
p3678
I229
sVwalk
p3679
I475
sVachole
p3680
I3511
sVlaugh
p3681
I2182
sVarguement
p3682
I1840
sVsombody
p3683
I2644
sVrespect
p3684
I815
sVquit
p3685
I1545
sVoccured
p3686
I3845
sVaddition
p3687
I2587
sVdiscrimination
p3688
I1796
sVcopies
p3689
I1841
sVshame
p3690
I3559
sVcreations
p3691
I3972
sVslowly
p3692
I1419
sVtreat
p3693
I2322
sVfreak
p3694
I3597
sVwaste
p3695
I2079
sVdefine
p3696
I2305
sVsuggested
p3697
I2329
sVarises
p3698
I2655
sVcontrolled
p3699
I1475
sVvoicing
p3700
I3429
sVpainted
p3701
I3165
sVcensor
p3702
I204
sVessentially
p3703
I2529
sVfinished
p3704
I3063
sVdeep
p3705
I2162
sVhateful
p3706
I2507
sVcovered
p3707
I2724
sVsmoking
p3708
I1707
sVan
p3709
I100
sVpresent
p3710
I992
sVquotation
p3711
I3513
sVhomes
p3712
I1991
sVapproperiate
p3713
I3846
sVnovel
p3714
I622
sVunlike
p3715
I2431
sVoveruse
p3716
I3847
sVplain
p3717
I1500
sVharder
p3718
I1380
sVvalue
p3719
I1723
sVchoices
p3720
I849
sVwill
p3721
I66
sVar
p3722
I1673
sVcountry
p3723
I357
sVwild
p3724
I2732
sVsupply
p3725
I3168
sVmagizenes
p3726
I3486
sVbarely
p3727
I3849
sValmost
p3728
I448
sVthus
p3729
I1519
sVsite
p3730
I2114
sValive
p3731
I2185
sVhelped
p3732
I1388
sVoccupied
p3733
I2933
sVaudiences
p3734
I925
sVwatched
p3735
I775
sVexplicet
p3736
I3554
sVdescriptive
p3737
I3326
sVportray
p3738
I3677
sVshooting
p3739
I2381
sVperhaps
p3740
I1219
sVbegan
p3741
I1381
sVcross
p3742
I2733
sVromance
p3743
I768
sVcope
p3744
I2690
sVparts
p3745
I969
sVcuriousity
p3746
I2184
sVdam
p3747
I3054
sVparty
p3748
I1546
sVgets
p3749
I556
sVdifficult
p3750
I1174
sVincorrect
p3751
I3327
sVpractice
p3752
I1641
sVslave
p3753
I2224
sVcontext
p3754
I2709
sVemotionally
p3755
I2508
sVnovels
p3756
I548
sVabsorb
p3757
I2590
sVdrink
p3758
I1536
sVdisagree
p3759
I531
sVeffect
p3760
I567
sVcensoring
p3761
I324
sVintroduce
p3762
I3398
sVstudent
p3763
I639
sVdiscouraged
p3764
I2591
sVsisters
p3765
I2656
sVexpand
p3766
I1315
sV'but
p3767
I1599
sVoff
p3768
I72
sVcenter
p3769
I2657
sVi
p3770
I16
sVcertian
p3771
I990
sVchocies
p3772
I3814
sVwell
p3773
I192
sVfighting
p3774
I858
sVthought
p3775
I282
sVtheses
p3776
I2433
sVamazed
p3777
I3604
sVthoughs
p3778
I2565
sVposition
p3779
I1843
sVlatest
p3780
I2271
sVstores
p3781
I440
sVless
p3782
I470
sVmoments
p3783
I2509
sVpercent
p3784
I1875
sVaccurate
p3785
I3515
sVobtain
p3786
I1658
sVdose
p3787
I1128
sVsources
p3788
I1195
sVmistakes
p3789
I1098
sVrooms
p3790
I1406
sVtough
p3791
I2094
sVgraduate
p3792
I3678
sVhappiness
p3793
I2734
sVwether
p3794
I1135
sVweb
p3795
I2835
sVdrunk
p3796
I1676
sVgum
p3797
I3389
sS'<num>'
p3798
I2
sVsimple
p3799
I565
sVignorance
p3800
I1959
sVother
p3801
I93
sVcitizen
p3802
I1642
sVusage
p3803
I3169
sVadvanced
p3804
I2200
sVsmart
p3805
I1126
sVvulger
p3806
I3625
sVadvertising
p3807
I2857
sVeverthing
p3808
I2378
sVgovernment
p3809
I441
sVchecking
p3810
I668
sVcrushed
p3811
I3516
sVpublics
p3812
I2764
sVhistoric
p3813
I2323
sVfive
p3814
I1267
sVwhatever
p3815
I300
sVdesk
p3816
I1463
sVpress
p3817
I698
sVimmediately
p3818
I1743
sVcenorship
p3819
I2081
sVdebatable
p3820
I3330
sVloss
p3821
I1161
sVcheck-out
p3822
I2028
sVtrash
p3823
I2412
sVnecessary
p3824
I796
sVhelpful
p3825
I773
sVlost
p3826
I792
sVcandy
p3827
I2945
sVoffesive
p3828
I1844
sVlimt
p3829
I3282
sVlose
p3830
I613
sVbecome
p3831
I380
sVworks
p3832
I517
sVsoft
p3833
I3679
sVpage
p3834
I1547
sVregardless
p3835
I1927
sVamendment
p3836
I1913
sVbecause
p3837
I43
sVclassical
p3838
I2661
sVscared
p3839
I1354
sVchurch
p3840
I2812
sVsearching
p3841
I1220
sVauthority
p3842
I1279
sVideals
p3843
I1136
sVgrowth
p3844
I2434
sVchoosing
p3845
I1230
sVproper
p3846
I1431
sVhome
p3847
I365
sVliking
p3848
I1656
sVscares
p3849
I3854
sVhappens
p3850
I601
sVceleberties
p3851
I3544
sVobsessed
p3852
I3612
sVlead
p3853
I636
sVavoid
p3854
I675
sVbeleifs
p3855
I3188
sVshelter
p3856
I1501
sVdoes
p3857
I121
sVdiscretion
p3858
I2379
sVhappend
p3859
I1415
sVwarned
p3860
I3331
sV?
p3861
I67
sVhinder
p3862
I2137
sVnoise
p3863
I3682
sVcoated
p3864
I3517
sVreaching
p3865
I2592
sVtoke
p3866
I3660
sVpoverty
p3867
I3293
sVoutlets
p3868
I3339
sVpressure
p3869
I2511
sVdoctors
p3870
I3035
sVconveyed
p3871
I2735
sVprohibited
p3872
I3518
sValthough
p3873
I409
sVworthy
p3874
I3067
sVrated-
p3875
I3855
sVr
p3876
I2015
sVoppinons
p3877
I3856
sVhiding
p3878
I1537
sVgained
p3879
I2578
sVsister
p3880
I1121
sVactual
p3881
I2380
sVasks
p3882
I2609
sVgetting
p3883
I290
sVaccessable
p3884
I3172
sVfreedom
p3885
I197
sVvarities
p3886
I3173
sVrecognized
p3887
I2946
sVswear
p3888
I1451
sVintroduced
p3889
I1432
sVpersuaded
p3890
I3519
sVequally
p3891
I1798
sVown
p3892
I143
sVchildrens
p3893
I510
sVkeeps
p3894
I1222
sVpreviously
p3895
I1799
sVcreativity
p3896
I1494
sVnormaly
p3897
I3908
sVweather
p3898
I1308
sVtiny
p3899
I3556
sVfemale
p3900
I2186
sVartists
p3901
I866
sVcouldnt
p3902
I2324
sVquickly
p3903
I2005
sVpointless
p3904
I1285
sVintellegent
p3905
I2664
sVwach
p3906
I3068
sVaccused
p3907
I2947
sVminority
p3908
I2957
sVphrases
p3909
I2726
sVsecret
p3910
I2362
sVspots
p3911
I3490
sVnoticed
p3912
I1196
sVspread
p3913
I1780
sVboard
p3914
I1922
sVfrustration
p3915
I3333
sVbiggest
p3916
I1390
sVgoin
p3917
I1993
sVglobe
p3918
I2580
sVnaturally
p3919
I3334
sVfunction
p3920
I2082
sVbuy
p3921
I422
sVsponges
p3922
I3203
sVbus
p3923
I3684
sValchoale
p3924
I3335
sVbut
p3925
I42
sVrepeated
p3926
I3069
sVgain
p3927
I976
sVbookshelf
p3928
I1845
sVhighest
p3929
I2594
sVeat
p3930
I1622
sVwitness
p3931
I2504
sVhe
p3932
I185
sVcount
p3933
I2083
sVselfish
p3934
I2376
sVmade
p3935
I270
sVwise
p3936
I1564
sVplaces
p3937
I513
sVopinons
p3938
I2581
sVwhether
p3939
I297
sVwish
p3940
I604
sVwife
p3941
I3125
sVlibarys
p3942
I3831
sVsigned
p3943
I2595
sVmoive
p3944
I1800
sVexcitement
p3945
I2512
sVplaced
p3946
I649
sVcruel
p3947
I1801
sVconvince
p3948
I2084
sVlimit
p3949
I481
sVkatherine
p3950
I338
sVproblem
p3951
I249
sVpiece
p3952
I614
sVinformational
p3953
I1600
sVdisplay
p3954
I1077
sVhorrific
p3955
I2737
sVrecognize
p3956
I3337
sVsexually
p3957
I1764
sVupsets
p3958
I2948
sVmens
p3959
I3882
sVrelates
p3960
I2666
sVlikly
p3961
I3204
sVeducation
p3962
I728
sVipods
p3963
I3521
sVgirl
p3964
I523
sVrecomend
p3965
I3205
sVeffected
p3966
I2514
sVspell
p3967
I1989
sVcompared
p3968
I2280
sV'll
p3969
I916
sVpieace
p3970
I2949
sVvariety
p3971
I609
sVoffensive
p3972
I33
sVdetail
p3973
I1724
sVlately
p3974
I1914
sVopinon
p3975
I1341
sVbook
p3976
I28
sVcompares
p3977
I3338
sVdetails
p3978
I1683
sVsick
p3979
I2435
sVmass
p3980
I2057
sVputing
p3981
I3095
sVconclusion
p3982
I368
sVrepeat
p3983
I1019
sVkinds
p3984
I395
sVveiw
p3985
I1915
sVclass
p3986
I553
sVultimately
p3987
I3108
sVstay
p3988
I298
sVchance
p3989
I483
sVkinda
p3990
I1580
sVfriends
p3991
I458
sVexposure
p3992
I1464
sVspace
p3993
I3402
sVrule
p3994
I1268
sVportion
p3995
I2597
sVuneducated
p3996
I2950
sVunderstand
p3997
I239
sVyell
p3998
I3070
sVaccidents
p3999
I3522
sVabhor
p4000
I1020
s.