(dp0
Vstock
p1
I1660
sVsecondly
p2
I427
sVtodays
p3
I1084
sVlimited
p4
I1306
sVsaver
p5
I3651
sVsaves
p6
I834
sVcolleges
p7
I1821
sVyellow
p8
I2824
sVfour
p9
I1066
sVrapid
p10
I2815
sVwoods
p11
I1972
sVsleep
p12
I1059
sVhanging
p13
I960
sVconsists
p14
I3067
sVsaved
p15
I991
sVconsider
p16
I832
sVrelationships
p17
I937
sVlooking
p18
I272
sVspellcheck
p19
I3284
sVbuddy
p20
I2646
sVelectricity
p21
I980
sVenchance
p22
I3650
sVchildern
p23
I3278
sVbike
p24
I992
sVvoted
p25
I3469
sVunder
p26
I1157
sVteaching
p27
I971
sVsorry
p28
I2048
sVworth
p29
I882
sVedictded
p30
I3847
sVacount
p31
I2486
sVupdated
p32
I1045
sVrisk
p33
I799
sVrise
p34
I2731
sVdifferently
p35
I3071
sVcoordinations
p36
I3468
sVevery
p37
I191
sVupdates
p38
I1251
sVmessy
p39
I1633
sVaffect
p40
I345
sVbringing
p41
I1864
sVvast
p42
I1920
sVpsycologist
p43
I3280
sVtickets
p44
I1243
sVschool
p45
I106
sVbestfriend
p46
I2733
sVskills
p47
I289
sVsupports
p48
I2802
sVcompanies
p49
I1017
sVsolution
p50
I2049
sVred
p51
I2225
sVemployees
p52
I2155
sVglued
p53
I1259
sVreliable
p54
I1118
sVclothes
p55
I1178
sVenjoy
p56
I268
sVforce
p57
I2648
sVthrought
p58
I1950
sVtired
p59
I1197
sVphones
p60
I759
sVexcersice
p61
I3165
sVrequest
p62
I2230
sVtalks
p63
I1512
sVsecond
p64
I291
sVstreet
p65
I1325
sVmanner
p66
I2219
sVfriendships
p67
I1590
sVmaney
p68
I3318
sVpasswords
p69
I3790
sVmachines
p70
I894
sVtheory
p71
I3917
sVeven
p72
I83
sVeveryones
p73
I1891
sVhide
p74
I2237
sVhate
p75
I2084
sV+
p76
I2575
sVcooking
p77
I2502
sVrevolves
p78
I3166
sVfingers
p79
I757
sVreasoning
p80
I2313
sVinaproprite
p81
I3653
sVlights
p82
I1805
sVabove
p83
I1343
sVdr.
p84
I1110
sVnew
p85
I126
sVtips
p86
I1719
sVincreasing
p87
I1317
sVever
p88
I219
sVdisney
p89
I3169
sVtold
p90
I633
sVmessanger
p91
I2649
sVspecialist
p92
I2825
sVextremly
p93
I1621
sVbenifiting
p94
I2085
sVintrest
p95
I3069
sVwhose
p96
I3068
sVnever
p97
I195
sVfatter
p98
I3759
sVhere
p99
I460
sVhundreds
p100
I908
sVsocialize
p101
I800
sVmet
p102
I1111
sVprotection
p103
I2154
sVchina
p104
I3283
sVactive
p105
I513
sVlern
p106
I3680
sVkids
p107
I108
sVdaughter
p108
I1550
sVlazier
p109
I3605
sVitems
p110
I1140
sVstudy
p111
I389
sVchanged
p112
I787
sVjail
p113
I3095
sVreports
p114
I912
sVcontroversy
p115
I2826
sVitunes
p116
I3472
sVcredit
p117
I1397
sVjogging
p118
I3850
sVstressed
p119
I1778
sVmilitary
p120
I2104
sVpack
p121
I3587
sVchanges
p122
I1356
sVpromoted
p123
I3826
sVserch
p124
I2050
sVyork
p125
I3851
sVfantastic
p126
I1450
sVwheather
p127
I2358
sVartical
p128
I3170
sVgeography
p129
I3333
sVexplained
p130
I2276
sVschooling
p131
I2189
sVhighly
p132
I1622
sVbrought
p133
I816
sVninety
p134
I3655
sVwars
p135
I2385
sVathlete
p136
I3437
sVcostly
p137
I3588
sVactions
p138
I2764
sVtotal
p139
I1779
sVvertual
p140
I2829
sVcriminals
p141
I1573
sVspoke
p142
I2106
sVwould
p143
I55
sVarmy
p144
I1574
sVbrowse
p145
I2107
sVhospital
p146
I1357
sVachieve
p147
I3057
sVnegative
p148
I282
sVnoting
p149
I3853
sVmusic
p150
I388
sVtherefore
p151
I557
sVsurvive
p152
I1451
sVtype
p153
I164
sVuntil
p154
I790
sVseparated
p155
I3695
sVbecouse
p156
I3474
sVposting
p157
I2051
sVrelax
p158
I773
sVsuccessful
p159
I1974
sVbrings
p160
I984
sVexpose
p161
I3657
sVcordnation
p162
I3220
sVyahoo
p163
I1532
sVhurt
p164
I575
sVwarn
p165
I2386
sVphone
p166
I273
sVwarm
p167
I2052
sVadult
p168
I1146
sVexcellent
p169
I1837
sVcured
p170
I3475
sVhole
p171
I1975
sVhold
p172
I781
sVcompanys
p173
I2445
sVforgein
p174
I3026
sVmust
p175
I478
sVme
p176
I134
sVsocity
p177
I2342
sVte
p178
I2538
sVjoin
p179
I1188
sVroom
p180
I530
sVpursue
p181
I2830
sVhomepage
p182
I2314
sVwork
p183
I128
sVentertained
p184
I1517
sVmovies
p185
I653
sVera
p186
I2955
sVinstall
p187
I2446
sVim
p188
I885
sVmy
p189
I40
sVexample
p190
I143
sVaddictive
p191
I1518
sVexcuses
p192
I3797
sVwana
p193
I3287
sVgive
p194
I179
sVcalories
p195
I1191
sVhousehold
p196
I1420
sVorganized
p197
I1028
sVinvolve
p198
I1452
sVfoods
p199
I1720
sVwant
p200
I100
sVappointment
p201
I3377
sVkeep
p202
I156
sVcites
p203
I2956
sVadvancing
p204
I1506
sVend
p205
I435
sVconvienience
p206
I2890
sVturn
p207
I572
sVprovide
p208
I464
sVinteracts
p209
I3183
sVtravel
p210
I468
sVsong
p211
I1125
sVdamage
p212
I1129
sVmachine
p213
I1198
sVhow
p214
I86
sVamazing
p215
I510
sVcures
p216
I3476
sVhop
p217
I2504
sVanswer
p218
I492
sVbeach
p219
I1489
sVcharging
p220
I3858
sVpizza
p221
I2577
sVgaming
p222
I981
sVuntill
p223
I2651
sVoceans
p224
I3279
sVbeauty
p225
I1272
sVmess
p226
I1121
sVtyped
p227
I913
sVafter
p228
I325
sVlab
p229
I2343
sVconnects
p230
I3288
sVbefor
p231
I2735
sVwrong
p232
I441
sVjumping
p233
I3859
sVlay
p234
I2012
sVmarriage
p235
I3397
sVpresident
p236
I1921
sVlaw
p237
I1780
sVlap
p238
I2957
sVtypes
p239
I744
sVtyper
p240
I3289
sVinactivity
p241
I3662
sVpurchase
p242
I1642
sVthird
p243
I531
sVsurvay
p244
I3477
sVautomaticly
p245
I3663
sVappreciate
p246
I2344
sVchildhood
p247
I1672
sVmaintain
p248
I1922
sVgreen
p249
I2157
sVenter
p250
I1358
sVfan
p251
I3478
sVin-touch
p252
I3860
sVorder
p253
I586
sVwind
p254
I2108
sVemotion
p255
I2872
sVmabey
p256
I2277
sVoffice
p257
I1037
sVover
p258
I137
sVvary
p259
I2109
sVsatisfied
p260
I2958
sVschedual
p261
I3683
sVdown-sides
p262
I3564
sVbenefited
p263
I2505
sVkeyboard
p264
I806
sVtalkative
p265
I2736
sVsuceed
p266
I2128
sVexchange
p267
I3139
sVbefore
p268
I285
sVstoped
p269
I2382
sVfit
p270
I629
sVpersonal
p271
I578
sVfix
p272
I1199
sVdiffrent
p273
I1130
sV,
p274
I4
sVinterfere
p275
I3629
sVwriting
p276
I302
sVbetter
p277
I174
sVspoken
p278
I3347
sVencounter
p279
I2732
sVpersonas
p280
I3664
sVweeks
p281
I1085
sVeasier
p282
I230
sVsplit
p283
I3320
sVthen
p284
I113
sVthem
p285
I53
sVaffected
p286
I1379
sVdiseases
p287
I1734
sVprevented
p288
I2238
sVenrich
p289
I2832
sVworkout
p290
I2307
sVsafe
p291
I582
sVschoold
p292
I2833
sVbreak
p293
I895
sVband
p294
I2959
sVcouples
p295
I3206
sVgiraffe
p296
I2960
sVeffects
p297
I224
sVthey
p298
I23
sVschools
p299
I523
sVone
p300
I75
sVthes
p301
I3479
sVther
p302
I1076
sVbank
p303
I1551
sVbread
p304
I2961
sVgrammar
p305
I2053
sVoxygen
p306
I2158
sVregularly
p307
I3151
sVpotatoes
p308
I3861
sVarrested
p309
I3665
sVgrows
p310
I2393
sVweekends
p311
I2056
sVfaraway
p312
I328
sVya
p313
I3936
sVreasonable
p314
I2579
sVeach
p315
I254
sVaddicted
p316
I323
sVrealtives
p317
I2278
sVwent
p318
I386
sVkeyboards
p319
I3731
sVside
p320
I394
sVmean
p321
I445
sVsigning
p322
I3172
sVindependent
p323
I2976
sVcloths
p324
I3173
sVcrimes
p325
I2159
sVhusband
p326
I2171
sVupload
p327
I2953
sVvote
p328
I3348
sVtaught
p329
I1341
sVforgot
p330
I948
sVclassmates
p331
I3666
sVmessage
p332
I518
sVgon
p333
I1838
sVnetwork
p334
I1552
sVdriving
p335
I810
sVgod
p336
I2239
sVcameras
p337
I3480
sVhooked
p338
I1490
sVmonitor
p339
I1395
sVstrangers
p340
I1330
sVre
p341
I2279
sVencourage
p342
I1099
sVrare
p343
I2273
sVenable
p344
I1872
sVreader
p345
I2656
sVmedicine
p346
I2962
sVgot
p347
I253
sVware
p348
I3658
sVsize
p349
I2361
sVforth
p350
I1781
sVfoundation
p351
I3293
sVturning
p352
I1721
sVwritten
p353
I1571
sVhang
p354
I692
sVlittle
p355
I318
sVfree
p356
I458
sVstandard
p357
I3482
sVcorrects
p358
I3294
sVelsewhere
p359
I3295
sVenhance
p360
I2647
sVsheet
p361
I3296
sVwanted
p362
I417
sVheat
p363
I2750
sVenormous
p364
I2540
sVate
p365
I2506
sVafect
p366
I3483
sVcreated
p367
I966
sVeveything
p368
I3668
sVstarts
p369
I1398
sVmessages
p370
I821
sVdays
p371
I294
sVpriorities
p372
I2737
sVups
p373
I1718
sVcreates
p374
I2580
sVbears
p375
I2379
sVshipped
p376
I1976
sVwaterfall
p377
I3685
sVoppose
p378
I3484
sVisn
p379
I2192
sVunknown
p380
I2496
sVuses
p381
I475
sVonto
p382
I673
sVhire
p383
I2366
sVspeeds
p384
I2834
sVpurpose
p385
I1585
sValready
p386
I705
sVfeatures
p387
I1643
sVreconnected
p388
I3485
sVgrade
p389
I532
sVattractions
p390
I3764
sVwast
p391
I1977
sVhearing
p392
I2086
sVrestrict
p393
I2448
sVfantasy
p394
I3174
sVdownside
p395
I3670
sVanother
p396
I148
sVelectronic
p397
I1105
sVresearched
p398
I2739
sVspecially
p399
I2501
sVoline
p400
I3813
sVolds
p401
I2836
sVbasketball
p402
I1067
sVservice
p403
I1748
sVattach
p404
I3866
sVtop
p405
I1091
sVgirls
p406
I1923
sVbulb
p407
I3823
sVneeded
p408
I374
sVton
p409
I1839
sVtoo
p410
I129
sVcarrer
p411
I3867
sVcontrys
p412
I2963
sVpercentage
p413
I2087
sVlegs
p414
I2838
sVdogs
p415
I2346
sVdamaging
p416
I1381
sVlisten
p417
I621
sVhangout
p418
I1735
sVasset
p419
I3854
sVhows
p420
I2705
sVtool
p421
I609
sVserve
p422
I1840
sVtook
p423
I695
sVfaimly
p424
I3486
sVwastes
p425
I2014
sVyouve
p426
I2691
sVsomewhat
p427
I2659
sVwasted
p428
I1382
sVpositively
p429
I2110
sVdistance
p430
I714
sVperfectly
p431
I3618
sVtarget
p432
I2964
sVshowed
p433
I876
sVhike
p434
I1623
sVdatabase
p435
I3591
sVtree
p436
I1421
sVlikely
p437
I652
sVebay
p438
I2161
sVproject
p439
I316
sVmatter
p440
I561
sVclasses
p441
I755
sVsilly
p442
I2322
sVspeaking
p443
I1815
sVhistorical
p444
I2581
sVjoy
p445
I2810
sVfeeling
p446
I1422
sVevey
p447
I2509
sVuseage
p448
I3532
sVlbs
p449
I3176
sVfailing
p450
I1782
sVsees
p451
I3072
sVexploring
p452
I2250
sVran
p453
I1307
sVuploading
p454
I3882
sVmodern
p455
I715
sVmind
p456
I469
sVmine
p457
I1575
sVspent
p458
I453
sVtalking
p459
I205
sVinfront
p460
I1173
sVobssesed
p461
I3575
sVseen
p462
I414
sVseem
p463
I866
sVmins
p464
I2387
sVseek
p465
I2054
sVtells
p466
I884
sVcontents
p467
I3488
sVforced
p468
I2582
sVconvenient
p469
I1491
sV-
p470
I769
sVsnow
p471
I1953
sVrealy
p472
I1892
sVamny
p473
I3489
sVcausing
p474
I891
sVabsorbed
p475
I3300
sVchess
p476
I2388
sVdoors
p477
I1423
sVrides
p478
I2240
sVhook
p479
I3669
sVblue
p480
I3848
sVreaserch
p481
I2013
sVexactly
p482
I1714
sVwrists
p483
I3672
sVthough
p484
I405
sVdistracts
p485
I2583
sV@money
p486
I455
sVobject
p487
I2508
sVbilding
p488
I3177
sVexercised
p489
I3491
sVpoker
p490
I3098
sVregular
p491
I1453
sVarguing
p492
I2406
sVaddict
p493
I2111
sVletter
p494
I364
sVexercises
p495
I2223
sVeye-site
p496
I3301
sVcontain
p497
I3058
sVcellular
p498
I3604
sVattitude
p499
I3388
sVwebcam
p500
I634
sVpeers
p501
I1954
sVdon
p502
I1147
sVinterfear
p503
I3487
sVemailing
p504
I1484
sVmedical
p505
I1342
sVcamp
p506
I1477
sVdog
p507
I1224
sVnormaly
p508
I2918
sVcares
p509
I2605
sVdefinitely
p510
I1170
sVtech
p511
I1274
sVdos
p512
I2660
sVentertaining
p513
I1260
sVmailing
p514
I2055
sVcame
p515
I617
sVsaying
p516
I517
sVselected
p517
I3673
sVbomb
p518
I2842
sVinspire
p519
I2242
sVconclution
p520
I3137
sVinsects
p521
I3302
sVmeetings
p522
I2112
sVrandom
p523
I2243
sVmeal
p524
I2131
sVbenificial
p525
I2113
sVending
p526
I3674
sVpops
p527
I2740
sVcolors
p528
I2741
sVradio
p529
I2449
sVstepping
p530
I2389
sVparticipate
p531
I3303
sVearth
p532
I956
sVenjoyed
p533
I2015
sVlessons
p534
I1533
sVbusy
p535
I595
sVclicked
p536
I3716
sVmeny
p537
I2843
sVtypewriters
p538
I3304
sVment
p539
I2844
sVcousins
p540
I1236
sVexplain
p541
I848
sVwasteful
p542
I3496
sVresident
p543
I3636
sVtheme
p544
I3435
sVrich
p545
I3306
sVlibary
p546
I3073
sVfolks
p547
I3675
sVbeacause
p548
I3178
sVrice
p549
I3307
sVpersonality
p550
I2967
sVwearing
p551
I3074
sVdo
p552
I27
sVdesigning
p553
I2275
sVwatch
p554
I349
sVleisure
p555
I3497
sVforemost
p556
I2284
sVpocket
p557
I3308
sVcomunication
p558
I1424
sVamazon
p559
I2742
sVobducted
p560
I3676
sVabsolutley
p561
I3689
sVsupplies
p562
I3168
sVreport
p563
I520
sVdisadvantage
p564
I2979
sVbeleive
p565
I1282
sVnet
p566
I2114
sVunfortunately
p567
I2463
sVdelete
p568
I3005
sVchild
p569
I342
sVcontributes
p570
I3309
sVcountries
p571
I459
sVtextbooks
p572
I1237
sVfields
p573
I3075
sVexcel
p574
I1904
sVinportant
p575
I3078
sVmethod
p576
I1997
sVtwice
p577
I1463
sVbad
p578
I122
sVstead
p579
I3498
sVexersize
p580
I886
sVrelease
p581
I2845
sVruins
p582
I2089
sVcomitt
p583
I3620
sVsecretary
p584
I2378
sVrespond
p585
I2285
sVmandatory
p586
I3310
sVdisaster
p587
I1749
sVfascinating
p588
I2334
sVhabit
p589
I1665
sVhelpul
p590
I2831
sVgraduate
p591
I3834
sVtesting
p592
I2661
sVrecieve
p593
I1412
sVchecks
p594
I2584
sVdepends
p595
I1700
sVdecided
p596
I1344
sVresult
p597
I758
sVfail
p598
I1372
sVmiserable
p599
I3502
sVone-hundred
p600
I3503
sVbest
p601
I311
sVsubject
p602
I703
sVsaid
p603
I258
sVinappropriate
p604
I1454
sVlots
p605
I484
sVaway
p606
I125
sVwikipedia
p607
I2286
sVfacebooks
p608
I2796
sVrushing
p609
I3322
sVgrandmother
p610
I1841
sVstamps
p611
I2846
sVscore
p612
I2287
sVfinger
p613
I1736
sVpets
p614
I2194
sVhopefully
p615
I1093
sVseach
p616
I3678
sVsorts
p617
I1400
sVdiscovery
p618
I2743
sVlazy
p619
I452
sVmen
p620
I1685
sVterms
p621
I2969
sVwa
p622
I2347
sVnature
p623
I161
sVwo
p624
I465
sVinapropriot
p625
I3380
sVweak
p626
I2090
sVhowever
p627
I429
sVboss
p628
I1464
sVreflexes
p629
I1437
sVwear
p630
I1666
sVextent
p631
I2288
sVcousin
p632
I777
sVpicking
p633
I2390
sVdebt
p634
I3311
sVimprove
p635
I514
sVadapting
p636
I3822
sVreceived
p637
I2586
sVprotect
p638
I1843
sVaccident
p639
I2511
sVreported
p640
I3282
sVcountry
p641
I300
sVill
p642
I2970
sVreaders
p643
I795
sVadventures
p644
I3313
sVagainst
p645
I1086
sVparticipating
p646
I3872
sVplayers
p647
I1737
sVgames
p648
I119
sVplanned
p649
I3460
sVfaces
p650
I3873
sVargue
p651
I1241
sVasked
p652
I783
sVcon
p653
I2971
sVsuggest
p654
I1668
sVeyesight
p655
I1624
sVtough
p656
I2348
sVagreat
p657
I3314
sVcharacter
p658
I2666
sVcompuer
p659
I2948
sVgathering
p660
I3723
sVtons
p661
I1038
sVviruses
p662
I1094
sVpath
p663
I3849
sVwider
p664
I3506
sVloaded
p665
I2057
sVtrust
p666
I1261
sVspeak
p667
I1012
sVconference
p668
I3874
sVbathroom
p669
I3875
sVco-workers
p670
I2168
sVengines
p671
I1039
sVbasis
p672
I2058
sVfro
p673
I3315
sVthree
p674
I361
sVbeen
p675
I212
sVquickly
p676
I614
sVconfident
p677
I3876
sVmuch
p678
I73
sVdetrimental
p679
I2391
sVinterest
p680
I1507
sVbasic
p681
I1644
sVentetainment
p682
I3286
sVdozens
p683
I2587
sVpro
p684
I3198
sVboard
p685
I1434
sVwebsite
p686
I314
sVobese
p687
I448
sVlife
p688
I94
sVfamilies
p689
I321
sVinnocent
p690
I2849
sVrelaxing
p691
I1553
sVdrugs
p692
I1667
sVprison
p693
I3324
sVwritting
p694
I1609
sVlocations
p695
I1612
sVpowerpoints
p696
I3334
sVlift
p697
I2847
sVpersonally
p698
I807
sVcatch
p699
I605
sVworked
p700
I2512
sVchill
p701
I3317
sVdefinetly
p702
I1359
sVharms
p703
I2972
sVwinding
p704
I3724
sVair
p705
I482
sVaim
p706
I797
sVnear
p707
I1047
sVneat
p708
I1217
sVteachers
p709
I442
sVstopping
p710
I3181
sVaid
p711
I1625
sVexcersise
p712
I1100
sVbalance
p713
I1252
sVreunion
p714
I3319
sVleaves
p715
I1354
sVmistake
p716
I1433
sVseven
p717
I2392
sVcons
p718
I1555
sVencyclopedias
p719
I1884
sVplayed
p720
I982
sVis
p721
I17
sVit
p722
I24
sVfamely
p723
I3316
sVexpenses
p724
I3182
sVplayer
p725
I1131
sVcant
p726
I533
sVexperts
p727
I433
sVin
p728
I20
sVignoring
p729
I3654
sVmouse
p730
I654
sVif
p731
I38
sVgrown
p732
I1925
sVdamaged
p733
I2848
sVlacking
p734
I2182
sVperform
p735
I2973
sVthings
p736
I70
sVmake
p737
I105
sVairport
p738
I2419
sVentertennent
p739
I2974
sVlinked
p740
I3262
sVbeside
p741
I3880
sVfatal
p742
I3138
sVcomplex
p743
I2744
sVpatient
p744
I3131
sVdamages
p745
I3048
sVchatroom
p746
I3684
sVinnappropriate
p747
I3881
sVplates
p748
I3507
sVseveral
p749
I1360
sVshowing
p750
I1567
sVadvertising
p751
I2975
sVwheel
p752
I2589
sVfairly
p753
I2513
sVpick
p754
I750
sV@month
p755
I153
sVrain
p756
I1893
sVhand
p757
I208
sVeffectively
p758
I2713
sVeye-sight
p759
I3321
sVafraid
p760
I3263
sVexcersising
p761
I1275
sVi.
p762
I3686
sVpositives
p763
I2091
sVguardian
p764
I3092
sVprotected
p765
I3721
sVopportunity
p766
I1112
sVthoughts
p767
I1646
sVkid
p768
I466
sVpositve
p769
I3687
sVkept
p770
I1626
sVadictive
p771
I2746
sVthy
p772
I3175
sVprograms
p773
I430
sVvulgar
p774
I3812
sVyoure
p775
I1401
sVcontack
p776
I2977
sVsuffering
p777
I2324
sVocean
p778
I2450
sVepisode
p779
I2841
sVcontact
p780
I419
sVgreatest
p781
I1023
sVmother
p782
I696
sVclaims
p783
I3688
sVthe
p784
I6
sVyours
p785
I1722
sVtha
p786
I2349
sVleft
p787
I1018
sVopinions
p788
I1068
sVtraditions
p789
I2978
sVjust
p790
I64
sVdecreasing
p791
I3104
sVathletic
p792
I2590
sVphoto
p793
I2591
sVlaptop
p794
I592
sVanti-social
p795
I2017
sVswearing
p796
I3852
sV@caps
p797
I15
sVaside
p798
I2665
sVassigned
p799
I1402
sVgrades
p800
I437
sVgrader
p801
I3184
sVthanks
p802
I775
sVhuman
p803
I636
sVfacts
p804
I519
sVyes
p805
I415
sVyet
p806
I694
sVprevious
p807
I3323
sVnote
p808
I2529
sVshoud
p809
I2593
sVunique
p810
I2259
sVease
p811
I1865
sVhad
p812
I177
sVadvancement
p813
I1283
sVcountrys
p814
I1956
sVshout
p815
I3509
sVspread
p816
I1077
sVlong-lost
p817
I3079
sVteenager
p818
I1361
sVeasy
p819
I270
sVtechnological
p820
I1060
sVels
p821
I3883
sVsave
p822
I395
sVadress
p823
I2394
sVhumanity
p824
I3185
sVhav
p825
I2115
sVgave
p826
I1061
sVgraders
p827
I2954
sVenviornment
p828
I3080
sVhim/her
p829
I3810
sVadvances
p830
I443
sVprofessional
p831
I2603
sVpossible
p832
I622
sVpossibly
p833
I1069
sVboxes
p834
I3510
sVbackground
p835
I2395
sVdestroy
p836
I2195
sVfeelings
p837
I1951
sVadvanced
p838
I706
sVapart
p839
I957
sVdesire
p840
I2515
sVtexts
p841
I3224
sVunfortunatly
p842
I2594
sVshaped
p843
I3994
sVunnecessary
p844
I3690
sVtheyre
p845
I2595
sVspecific
p846
I1158
sVremind
p847
I2850
sVsteps
p848
I2116
sVzombies
p849
I3082
sVnight
p850
I559
sVhung
p851
I3186
sVsecurity
p852
I2350
sVbutterfly
p853
I3351
sVbeneficial
p854
I499
sVright
p855
I240
sVold
p856
I279
sVdeal
p857
I1048
sVpeople
p858
I12
sVdead
p859
I1508
sVborn
p860
I2018
sVprinter
p861
I2876
sVhassle
p862
I2351
sVparagraphs
p863
I2021
sVdear
p864
I110
sVpain
p865
I1816
sVadvertise
p866
I3187
sVxbox
p867
I2748
sVfor
p868
I26
sVgrading
p869
I2197
sVear
p870
I3063
sVopposite
p871
I1870
sVloads
p872
I2292
sV/
p873
I2019
sVcreative
p874
I2289
sVeverything
p875
I266
sVasking
p876
I1078
sVoffices
p877
I3886
sVcompletly
p878
I1866
sVchristmas
p879
I3887
sVbooking
p880
I2749
sVhabbits
p881
I3083
sVneatly
p882
I1703
sVtour
p883
I3737
sVburn
p884
I1294
sVkickball
p885
I2981
sVfullest
p886
I2858
sVtecnollogy
p887
I3726
sVposses
p888
I3578
sVlosing
p889
I857
sVsorce
p890
I2164
sVpost
p891
I819
sVsuper
p892
I1647
sVplug
p893
I2244
sVaccountants
p894
I3888
sVnetbook
p895
I2534
sVattacks
p896
I2451
sVtheirs
p897
I1784
sVdollars
p898
I1610
sVmonths
p899
I1284
sVrelitive
p900
I3941
sVo
p901
I1978
sVlikley
p902
I2444
sVdinner
p903
I828
sVplus
p904
I669
sVimportantly
p905
I731
sVsuggestions
p906
I3383
sVautomatically
p907
I3084
sVmatch
p908
I2374
sVcontains
p909
I3562
sVwhats
p910
I672
sVlied
p911
I2667
sVod
p912
I3214
sVwasting
p913
I701
sVpays
p914
I3513
sVobessity
p915
I3326
sVcarpal
p916
I2982
sVbound
p917
I3514
sVson
p918
I983
sVdown
p919
I263
sVthankful
p920
I2852
sVbeings
p921
I2853
sVadventure
p922
I2477
sVbalanced
p923
I2983
sVreducing
p924
I2855
sVallways
p925
I2352
sVmethods
p926
I3416
sVwan
p927
I1435
sVrely
p928
I855
sVbeleve
p929
I3353
sVamazingly
p930
I3692
sVsupport
p931
I508
sVtennis
p932
I1218
sVpossitive
p933
I1245
sVsunlight
p934
I3190
sVfight
p935
I1285
sVstuck
p936
I1262
sVnow-a-days
p937
I2020
sVeditor
p938
I754
sVway
p939
I87
sVresulted
p940
I2517
sVcall
p941
I408
sVwat
p942
I1628
sVwas
p943
I117
sVwar
p944
I1383
sVhappy
p945
I630
sVhead
p946
I909
sVform
p947
I808
sVoffer
p948
I664
sVmagnificent
p949
I2070
sVbecoming
p950
I566
sVconverse
p951
I2984
sVfore
p952
I3086
sVplaning
p953
I3795
sVpurchasing
p954
I2380
sVuncle
p955
I1308
sVblindness
p956
I2059
sVtrue
p957
I526
sVabsent
p958
I2596
sValternitive
p959
I3892
sVbuilds
p960
I3693
sVprevents
p961
I2198
sVinside
p962
I489
sVislands
p963
I3691
sVattached
p964
I1903
sVcontry
p965
I2905
sVdevices
p966
I1006
sVtell
p967
I307
sVresson
p968
I2751
sVeconomic
p969
I3694
sVcancers
p970
I2985
sVemotional
p971
I3515
sS'<unk>'
p972
I1
sVbreathe
p973
I3855
sVgather
p974
I1895
sVproved
p975
I3329
sVicon
p976
I2762
sVclassic
p977
I3696
sVupset
p978
I2188
sVstatistic
p979
I2196
sVadvancements
p980
I2092
sVproven
p981
I877
sVhungry
p982
I2464
sV''
p983
I31
sVsometime
p984
I1413
sVexist
p985
I2290
sVfashioned
p986
I3087
sVsimulations
p987
I1739
sVawhile
p988
I3088
sVannoying
p989
I3191
sVtrip
p990
I677
sVexcercising
p991
I1266
sVbord
p992
I3512
sVdying
p993
I2597
sVno
p994
I150
sVna
p995
I1062
sVfar-away
p996
I2199
sVwhen
p997
I61
sVanyday
p998
I3547
sVreality
p999
I1040
sVinterested
p1000
I2022
sVrole
p1001
I1166
sVholding
p1002
I2986
sVpapers
p1003
I593
sVtest
p1004
I728
sVbulling
p1005
I1436
sVbecuase
p1006
I3331
sVsmell
p1007
I1752
sVrealize
p1008
I670
sVpicture
p1009
I685
sVconect
p1010
I3894
sV's
p1011
I68
sVbrothers
p1012
I3517
sVsurprise
p1013
I2657
sVfootball
p1014
I1189
sVstealing
p1015
I3374
sVupdate
p1016
I1630
sVdiet
p1017
I1810
sVbelive
p1018
I702
sV'd
p1019
I688
sVknowlage
p1020
I1785
sVscores
p1021
I2165
sV'm
p1022
I332
sVaware
p1023
I1244
sVweekend
p1024
I3089
sVdied
p1025
I1179
sVbillion
p1026
I3698
sVyounger
p1027
I1003
sVlonger
p1028
I887
sVpotato
p1029
I2398
sVassume
p1030
I2670
sVdaily
p1031
I493
sVforecast
p1032
I3732
sVclassmate
p1033
I2770
sVtime
p1034
I32
sVpush
p1035
I1534
sVserious
p1036
I871
sVprofits
p1037
I3699
sVstick
p1038
I1677
sVneighbors
p1039
I2452
sVconvienient
p1040
I1981
sVchilds
p1041
I1687
sVmanaged
p1042
I3700
sVchain
p1043
I2857
sVdance
p1044
I2988
sVglobal
p1045
I1384
sVfocus
p1046
I1159
sVleads
p1047
I1095
sVmanager
p1048
I2671
sVpeole
p1049
I1811
sVcomments
p1050
I2246
sVtheese
p1051
I3856
sVskin
p1052
I2672
sVbattle
p1053
I3518
sVchair
p1054
I961
sVrot
p1055
I3895
sVresourceful
p1056
I2673
sVcertainly
p1057
I1493
sVsuicide
p1058
I1295
sVdepend
p1059
I1113
sVnegitive
p1060
I1403
sVgraph
p1061
I2989
sVflash
p1062
I2353
sVfather
p1063
I972
sVeditors
p1064
I3091
sVenvironment
p1065
I661
sVanswered
p1066
I1345
sVfinally
p1067
I297
sVpermanently
p1068
I3519
sVbullys
p1069
I3520
sVdiscovering
p1070
I2453
sVidentity
p1071
I2176
sVverbally
p1072
I3332
sVshoot
p1073
I2674
sVdownloading
p1074
I2291
sVadvantage
p1075
I770
sVcheap
p1076
I2120
sVdivice
p1077
I3701
sVnone
p1078
I1581
sVchoice
p1079
I791
sVfees
p1080
I3972
sVstays
p1081
I2121
sVcook
p1082
I1594
sVword
p1083
I454
sVtrouble
p1084
I542
sVblast
p1085
I3522
sVexact
p1086
I2122
sVminute
p1087
I817
sVcool
p1088
I686
sVdrag
p1089
I3043
sVlevel
p1090
I1309
sVdid
p1091
I178
sVdie
p1092
I867
sVaudio
p1093
I2945
sVbrother
p1094
I771
sVleave
p1095
I642
sVitem
p1096
I1225
sVbikes
p1097
I2563
sVteam
p1098
I1132
sVquick
p1099
I598
sVguy
p1100
I1246
sVround
p1101
I2060
sVprevent
p1102
I985
sVhte
p1103
I3523
sVtalked
p1104
I997
sVsays
p1105
I304
sVregret
p1106
I2354
sVadicted
p1107
I2183
sVcollage
p1108
I1536
sVdealing
p1109
I3702
sVcheak
p1110
I3925
sVdiscover
p1111
I1247
sVcyber
p1112
I741
sVsign
p1113
I2123
sVneglect
p1114
I2871
sVcost
p1115
I680
sVroof
p1116
I3659
sVhace
p1117
I2465
sVrun
p1118
I591
sVrough
p1119
I2564
sVeducate
p1120
I1238
sVstressful
p1121
I2755
sVappear
p1122
I3524
sVohter
p1123
I2859
sVremain
p1124
I2211
sVdebate
p1125
I1368
sVcurrent
p1126
I1133
sVgoes
p1127
I565
sVreply
p1128
I1465
sVfalling
p1129
I2293
sVcrashing
p1130
I3002
sVboost
p1131
I1979
sVfilled
p1132
I1812
sVsolitaire
p1133
I3660
sVsupporting
p1134
I2355
sVrealizing
p1135
I2860
sVpose
p1136
I2980
sVexercize
p1137
I1556
sVheavily
p1138
I3270
sVgrandparents
p1139
I1611
sVbacause
p1140
I3902
sVunderstanding
p1141
I1537
sVwater
p1142
I1362
sVentertain
p1143
I1263
sVbaseball
p1144
I698
sVgroups
p1145
I2455
sVaddress
p1146
I1200
sValone
p1147
I845
sValong
p1148
I784
sVteaches
p1149
I503
sVteacher
p1150
I406
sVchange
p1151
I504
sVwait
p1152
I752
sVbox
p1153
I1510
sVsending
p1154
I762
sVthirty
p1155
I2456
sVhealthy
p1156
I326
sVrember
p1157
I2061
sVrethink
p1158
I3193
sVwherever
p1159
I2294
sVproud
p1160
I2518
sVfinnally
p1161
I3703
sVaccomplished
p1162
I3335
sVraining
p1163
I1971
sVusually
p1164
I666
sVweird
p1165
I3194
sVstudies
p1166
I540
sVengineer
p1167
I3292
sVteenage
p1168
I2401
sVtasks
p1169
I1029
sVuseful
p1170
I339
sVextra
p1171
I938
sVprefer
p1172
I1201
sVmarvelous
p1173
I2520
sVfake
p1174
I1980
sVanouther
p1175
I3704
sVsurroundings
p1176
I2807
sVrarely
p1177
I1494
sVcrisis
p1178
I2093
sVmarket
p1179
I2167
sVhotels
p1180
I1577
sVeverybody
p1181
I735
sVworking
p1182
I524
sVprove
p1183
I1174
sVprobaly
p1184
I2676
sVpositive
p1185
I136
sVangry
p1186
I2295
sVscan
p1187
I2897
sVvisit
p1188
I536
sVbutts
p1189
I3003
sVsports
p1190
I370
sVmsn
p1191
I3904
sVlive
p1192
I210
sVprey
p1193
I2756
sVopposed
p1194
I2124
sVwondering
p1195
I1688
sVmemory
p1196
I2757
sVbelieving
p1197
I3202
sVthru
p1198
I1724
sVtoday
p1199
I278
sVloving
p1200
I2862
sVpeope
p1201
I2863
sV``
p1202
I41
sVsharing
p1203
I2677
sVafford
p1204
I1478
sVflying
p1205
I1808
sVequipped
p1206
I2878
sVclue
p1207
I2599
sVvisual
p1208
I2864
sVeverywhere
p1209
I878
sVcases
p1210
I1063
sVsocal
p1211
I3762
sVeffort
p1212
I1648
sVeasiest
p1213
I1867
sVbelong
p1214
I3589
sVfly
p1215
I1725
sVlogos
p1216
I3336
sVahve
p1217
I3905
sVwouldnt
p1218
I1635
sVextreamly
p1219
I3897
sVcar
p1220
I645
sVoriginally
p1221
I3337
sVpretend
p1222
I2522
sVbelieves
p1223
I2865
sVgraphis
p1224
I2991
sVcan
p1225
I21
sVcam
p1226
I1600
sVfollowing
p1227
I1334
sVmaking
p1228
I355
sVarrive
p1229
I3093
sVnewspapers
p1230
I1627
sVheart
p1231
I939
sVcrazy
p1232
I1927
sVcitizens
p1233
I1165
sVfigure
p1234
I1190
sVawesome
p1235
I1753
sVblogging
p1236
I3778
sVtopic
p1237
I412
sVheard
p1238
I527
sS'<pad>'
p1239
I0
sVdropped
p1240
I2248
sVallowed
p1241
I1202
sVreminded
p1242
I3387
sVclothing
p1243
I3252
sVoccur
p1244
I3384
sVlistens
p1245
I3339
sVpink
p1246
I3705
sVproductive
p1247
I1896
sVwinter
p1248
I2523
sVwatching
p1249
I637
sVsudden
p1250
I2207
sVmagazine
p1251
I1807
sVwrite
p1252
I290
sVtill
p1253
I1649
sVvital
p1254
I1160
sVpure
p1255
I3706
sVhaveing
p1256
I1799
sVeight
p1257
I2079
sVeconomy
p1258
I993
sVmap
p1259
I1087
sVstaying
p1260
I683
sVdesigner
p1261
I3707
sVexplorer
p1262
I2524
sVhuge
p1263
I480
sVcritics
p1264
I3708
sVcranky
p1265
I2938
sVaol
p1266
I3258
sVspot
p1267
I1754
sVapplications
p1268
I1689
sVbirthday
p1269
I1680
sVmad
p1270
I1502
sVcommit
p1271
I2600
sVdate
p1272
I1203
sVsuch
p1273
I188
sVdata
p1274
I986
sVgrow
p1275
I998
sVman
p1276
I716
sVstress
p1277
I1239
sVsurfing
p1278
I1868
sVnatural
p1279
I831
sVremember
p1280
I366
sVwhenever
p1281
I1013
sVmaybe
p1282
I338
sVgoal
p1283
I3962
sVvactions
p1284
I3709
sVinform
p1285
I1414
sVso
p1286
I42
sVbasket
p1287
I3710
sVdefinitions
p1288
I1982
sVbeacuse
p1289
I2457
sVtutoring
p1290
I3625
sVtalk
p1291
I74
sVcomputor
p1292
I1650
sVbreaking
p1293
I1851
sVshoes
p1294
I2678
sVwebpage
p1295
I2296
sVindeed
p1296
I2025
sVmainly
p1297
I1670
sVyears
p1298
I320
sVbrain
p1299
I495
sVepisodes
p1300
I2297
sVexperiments
p1301
I2866
sVhabbit
p1302
I2125
sVcuts
p1303
I2679
sVdumb
p1304
I3621
sVstatements
p1305
I2516
sVcold
p1306
I1248
sVstill
p1307
I276
sVbirds
p1308
I1897
sVpolice
p1309
I1114
sVthank
p1310
I511
sVwheight
p1311
I3228
sVselves
p1312
I3527
sVinteresting
p1313
I839
sVtroubles
p1314
I2867
sVhot
p1315
I1476
sVdecreases
p1316
I3341
sVforms
p1317
I1495
sVwindow
p1318
I1898
sVoffers
p1319
I1521
sVmail
p1320
I823
sVmain
p1321
I562
sVdecades
p1322
I2298
sVawnser
p1323
I3889
sVhappened
p1324
I674
sVnon
p1325
I1899
sVlonely
p1326
I1466
sVemailed
p1327
I3096
sVviews
p1328
I3097
sVthrid
p1329
I2993
sVsmarter
p1330
I792
sVkiller
p1331
I3712
sVsooner
p1332
I2403
sVnation
p1333
I1204
sVlunch
p1334
I1455
sVtommorrow
p1335
I3913
sVbase
p1336
I2614
sVhalf
p1337
I551
sVnot
p1338
I34
sVfeature
p1339
I3195
sVnow
p1340
I111
sVkilled
p1341
I1226
sVnor
p1342
I1900
sVwont
p1343
I606
sVterm
p1344
I3196
sVname
p1345
I506
sVlies
p1346
I3085
sVpenpals
p1347
I3528
sVdrop
p1348
I1331
sVlocked
p1349
I2503
sVpossibilities
p1350
I1671
sVhandwrite
p1351
I3343
sVpinball
p1352
I3413
sVmagazines
p1353
I2854
sVentirely
p1354
I3529
sVindividually
p1355
I3914
sVsquare
p1356
I3344
sVretrieve
p1357
I3345
sVfired
p1358
I2169
sVbadly
p1359
I2447
sVbeloved
p1360
I3771
sVyeah
p1361
I2170
sVwrap
p1362
I3327
sVcatching
p1363
I1845
sVex
p1364
I2994
sVbegun
p1365
I2459
sVyear
p1366
I367
sVhappen
p1367
I426
sVmorning
p1368
I1817
sVobsession
p1369
I2758
sVdisasters
p1370
I1690
sVamusement
p1371
I3530
sVtried
p1372
I1390
sValbum
p1373
I2996
sVliving
p1374
I608
sVshown
p1375
I1175
sVaccomplish
p1376
I1901
sVreasearch
p1377
I1363
sVspace
p1378
I1079
sVfurthermore
p1379
I729
sVmultiplayer
p1380
I3099
sVincrease
p1381
I574
sVattracted
p1382
I3916
sVseriously
p1383
I2126
sVstupid
p1384
I1579
sVimperative
p1385
I2680
sVhacked
p1386
I2760
sVinternet
p1387
I98
sVcomptuer
p1388
I1438
sVreceiving
p1389
I2997
sVsweet
p1390
I3984
sVcorrect
p1391
I1149
sVshows
p1392
I438
sVearlier
p1393
I1814
sVmonster
p1394
I3714
sVcars
p1395
I1141
sVmillion
p1396
I1070
sVpossibility
p1397
I3346
sVquite
p1398
I1134
sVadvantages
p1399
I1439
sVbesides
p1400
I859
sVgrandma
p1401
I1869
sVcard
p1402
I994
sVcare
p1403
I623
sVpartner
p1404
I3828
sVadvance
p1405
I824
sVtraining
p1406
I2528
sVlanguage
p1407
I736
sVtechnolgy
p1408
I3531
sVcomunicate
p1409
I923
sVdownsides
p1410
I2870
sVworrying
p1411
I2408
sVthing
p1412
I127
sVplace
p1413
I244
sVmassive
p1414
I1983
sVswing
p1415
I2460
sVstyles
p1416
I3210
sVwarning
p1417
I2489
sVthink
p1418
I59
sVfrequent
p1419
I3100
sVfirst
p1420
I170
sVblind
p1421
I1440
sVcheese
p1422
I3717
sVconstantly
p1423
I1005
sVsaving
p1424
I1205
sVcyberbulling
p1425
I2359
sVsoftball
p1426
I2777
sVyourself
p1427
I456
sVamericans
p1428
I1652
sVlong
p1429
I216
sVdirectly
p1430
I2360
sVspanish
p1431
I2300
sVcarry
p1432
I2202
sVimpossible
p1433
I1557
sVsounds
p1434
I1253
sVraped
p1435
I3328
sVopen
p1436
I689
sVtomorrow
p1437
I1385
sVmillions
p1438
I615
sVcity
p1439
I1538
sVgiven
p1440
I927
sVchecked
p1441
I1787
sVknoledge
p1442
I2461
sVcaught
p1443
I1386
sVanyone
p1444
I447
sVprobibly
p1445
I3718
sVdraft
p1446
I1755
sVrecipies
p1447
I2578
sVtyping
p1448
I308
sVlegally
p1449
I3920
sVwhite
p1450
I2462
sVcite
p1451
I3349
sVfriend
p1452
I192
sVgives
p1453
I341
sVthas
p1454
I2839
sVbenifits
p1455
I1082
sVeyes
p1456
I344
sVhug
p1457
I3921
sVmostly
p1458
I646
sVthat
p1459
I13
sVbrains
p1460
I1902
sVthay
p1461
I1631
sVhurtful
p1462
I2507
sVbroadcast
p1463
I3720
sVreleased
p1464
I2761
sVridiculous
p1465
I2301
sVinstalling
p1466
I3901
sVcopy
p1467
I1364
sVthan
p1468
I123
sVpopulation
p1469
I840
sVwide
p1470
I841
sVtelevision
p1471
I1286
sV:
p1472
I444
sVeffective
p1473
I1608
sVdepressed
p1474
I1479
sVrequire
p1475
I1192
sVnon-stop
p1476
I2302
sVon-line
p1477
I2118
sVrehab
p1478
I2873
sVrelly
p1479
I3957
sVfuture
p1480
I446
sVwere
p1481
I175
sVcards
p1482
I1673
sVgigantic
p1483
I3722
sVwandering
p1484
I3350
sVdissapointed
p1485
I3922
sV1/
p1486
I3101
sVbrowser
p1487
I2999
sVand
p1488
I7
sVtwinkies
p1489
I3679
sVtopics
p1490
I999
sVturned
p1491
I1756
sVargument
p1492
I1148
sVsad
p1493
I914
sVthrew
p1494
I1645
sVsay
p1495
I116
sVrent
p1496
I1958
sVans
p1497
I3923
sVanger
p1498
I3225
sVbreakfast
p1499
I3533
sVsaw
p1500
I987
sVany
p1501
I194
sVsat
p1502
I2303
sVoffering
p1503
I3534
sVi.ming
p1504
I3785
sVefficient
p1505
I1115
sVanswering
p1506
I3103
sVisolate
p1507
I3725
sVideas
p1508
I616
sVzoo
p1509
I2875
sVe-mailing
p1510
I2405
sVequipment
p1511
I1788
sVideal
p1512
I3199
sVpotential
p1513
I2203
sVtake
p1514
I147
sVonline
p1515
I82
sVwanting
p1516
I1691
sVwonder
p1517
I1019
sVheal
p1518
I3891
sVchannel
p1519
I1928
sVsurf
p1520
I1365
sVurge
p1521
I1674
sVbegin
p1522
I730
sVsure
p1523
I347
sVmultiple
p1524
I1122
sVnormal
p1525
I1297
sVtrack
p1526
I1049
sVprice
p1527
I1080
sVknew
p1528
I726
sVbullyed
p1529
I3352
sVclearer
p1530
I3924
sVpaid
p1531
I2396
sV@num
p1532
I79
sVprinted
p1533
I2127
sVsheets
p1534
I3727
sVpleasure
p1535
I1407
sVpair
p1536
I3728
sVflowing
p1537
I3434
sVamerica
p1538
I1496
sVpages
p1539
I962
sVdefinatly
p1540
I2117
sV@city
p1541
I2681
sVforever
p1542
I1041
sVespecially
p1543
I668
sVconsidered
p1544
I3200
sVaverage
p1545
I569
sVlater
p1546
I655
sVdrive
p1547
I860
sVmessenger
p1548
I3809
sVrecieves
p1549
I2652
sVhear
p1550
I579
sVsenior
p1551
I2763
sVtypically
p1552
I3535
sVfiling
p1553
I3001
sVlaws
p1554
I1984
sVshop
p1555
I767
sVwalking
p1556
I1030
sVdrastically
p1557
I3201
sVshot
p1558
I1929
sVshow
p1559
I336
sVrecipe
p1560
I2094
sVdiscovered
p1561
I1789
sVusualy
p1562
I3354
sVbright
p1563
I1539
sVhack
p1564
I1425
sVcorner
p1565
I2407
sVaggressive
p1566
I3355
sVbenefitial
p1567
I2026
sVground
p1568
I1973
sVaint
p1569
I3536
sVslow
p1570
I1008
sVwitch
p1571
I1669
sVposative
p1572
I3153
sVenough
p1573
I293
sVcrime
p1574
I1740
sVgoind
p1575
I2675
sVonly
p1576
I141
sVgoing
p1577
I121
sVblack
p1578
I3105
sVhockey
p1579
I2877
sVinventions
p1580
I1287
sVrecipes
p1581
I2226
sVawareness
p1582
I3729
sVefficently
p1583
I3556
sVcorrectly
p1584
I1715
sVuncles
p1585
I3203
sVget
p1586
I45
sVrevolutionized
p1587
I3356
sVobease
p1588
I1757
sVtruly
p1589
I1441
sVdefine
p1590
I3821
sVnearly
p1591
I1404
sVsquirrels
p1592
I3537
sVprogress
p1593
I3155
sVobeast
p1594
I2530
sVenjoys
p1595
I3106
sVcelebrate
p1596
I2868
sVchosse
p1597
I3730
sVregarding
p1598
I3926
sVresource
p1599
I1031
sVsmoking
p1600
I3950
sVartist
p1601
I3471
sVcoumputers
p1602
I2879
sVworried
p1603
I1206
sVmiles
p1604
I1050
sVcoordiantion
p1605
I1653
sVgps
p1606
I3232
sVwhere
p1607
I197
sVcommunicated
p1608
I2404
sVvision
p1609
I1071
sVpicnic
p1610
I3204
sVsiblings
p1611
I2474
sVphysically
p1612
I940
sVcommitted
p1613
I3016
sVables
p1614
I3927
sVrelative
p1615
I1346
sVunfit
p1616
I3539
sVcollege
p1617
I440
sVanyways
p1618
I1985
sVsurgery
p1619
I1871
sVsport
p1620
I896
sVconcern
p1621
I693
sVyouself
p1622
I3357
sVfails
p1623
I3928
sVleaning
p1624
I3540
sVthease
p1625
I2880
sVcamping
p1626
I2204
sVways
p1627
I213
sValarming
p1628
I2881
sVdefinite
p1629
I3929
sVsites
p1630
I313
sVits
p1631
I166
sVoutside
p1632
I145
sVun
p1633
I2923
sVbetween
p1634
I596
sVaffecting
p1635
I1426
sVteens
p1636
I422
sVreading
p1637
I295
sVacross
p1638
I618
sVaffordable
p1639
I3733
sVnotice
p1640
I921
sVjobs
p1641
I287
sVparent
p1642
I949
sVscreen
p1643
I309
sVplanes
p1644
I3794
sVinjoy
p1645
I3358
sVsupermarket
p1646
I3359
sVkilling
p1647
I1818
sVblame
p1648
I1176
sVinapropriate
p1649
I2172
sVconcentrate
p1650
I3360
sVspare
p1651
I2635
sVhurts
p1652
I2027
sVarticle
p1653
I583
sVcities
p1654
I2466
sVcome
p1655
I267
sVrecall
p1656
I3761
sVreaction
p1657
I2467
sVdates
p1658
I2682
sVtuch
p1659
I3736
sVmany
p1660
I60
sVaccording
p1661
I1116
sVsomewhere
p1662
I1075
sVs
p1663
I1540
sVworkplace
p1664
I2208
sVbusness
p1665
I3911
sVorginized
p1666
I3735
sVlong-distance
p1667
I2397
sVexpression
p1668
I3361
sVcomes
p1669
I491
sVnearby
p1670
I2604
sVamong
p1671
I2205
sVmadness
p1672
I3006
sVcancer
p1673
I1347
sVperiod
p1674
I1595
sVpop
p1675
I1193
sVtehre
p1676
I3930
sVimpared
p1677
I3796
sVlearning
p1678
I255
sVoccuring
p1679
I3254
sVmoreover
p1680
I1704
sVpoll
p1681
I1264
sVboat
p1682
I3112
sVcaring
p1683
I1613
sVarts
p1684
I3747
sVlifes
p1685
I1310
sVgrand
p1686
I2375
sVcapable
p1687
I2410
sVstretch
p1688
I3362
sVinformed
p1689
I1790
sVvacation
p1690
I541
sVmark
p1691
I3107
sVbreath
p1692
I2304
sVwhos
p1693
I3985
sVdangers
p1694
I1219
sVtechnical
p1695
I2928
sVhardly
p1696
I1523
sVsystems
p1697
I1907
sVengine
p1698
I1231
sVdirection
p1699
I1959
sVeducated
p1700
I1298
sVshopping
p1701
I710
sVstorm
p1702
I2779
sVincome
p1703
I2790
sVunsafe
p1704
I2327
sVthousand
p1705
I2305
sVlaptops
p1706
I974
sVphotos
p1707
I1373
sVdramatic
p1708
I3738
sVwake
p1709
I2206
sVtextbook
p1710
I1705
sVlaying
p1711
I3379
sVcareful
p1712
I1467
sVformer
p1713
I2883
sVthose
p1714
I217
sVcountless
p1715
I1142
sVsound
p1716
I1180
sVglobally
p1717
I3363
sVmyself
p1718
I756
sVdeveloping
p1719
I2362
sVthese
p1720
I114
sVeasyer
p1721
I1873
sVresturant
p1722
I2884
sVn't
p1723
I33
sVproves
p1724
I1686
sVjoke
p1725
I2722
sVnewspaper
p1726
I160
sVsituation
p1727
I1320
sVive
p1728
I3364
sVeventually
p1729
I950
sVtelephone
p1730
I1468
sVsleeping
p1731
I2684
sVdecied
p1732
I3189
sVmiddle
p1733
I951
sVfinnaly
p1734
I2411
sVsomeone
p1735
I199
sVdrug
p1736
I1774
sVcomuter
p1737
I1596
sVloosing
p1738
I2063
sVreturn
p1739
I3967
sVwisely
p1740
I1726
sVtechnology
p1741
I130
sVeveryday
p1742
I239
sVworry
p1743
I850
sVtourist
p1744
I2685
sVdifferent
p1745
I196
sVdevelop
p1746
I1220
sVdisrespectful
p1747
I3766
sVdoctor
p1748
I924
sVpay
p1749
I396
sVknolage
p1750
I2686
sVfewer
p1751
I2557
sVsame
p1752
I303
sVcheck
p1753
I401
sVeverday
p1754
I2306
sVpad
p1755
I3108
sVarguments
p1756
I1819
sVstruggling
p1757
I3739
sVphysical
p1758
I761
sVpal
p1759
I3109
sVevents
p1760
I748
sVweek
p1761
I580
sVfinish
p1762
I897
sVsickness
p1763
I3366
sVdisadvantages
p1764
I1847
sVenjoyment
p1765
I2173
sVdownloads
p1766
I3932
sVresturants
p1767
I3120
sVdriver
p1768
I3207
sVcompanion
p1769
I3740
sVscientist
p1770
I1367
sVpersons
p1771
I1161
sVrunning
p1772
I868
sVchanging
p1773
I1469
sVtotally
p1774
I1820
sVmentally
p1775
I2028
sVrelies
p1776
I3933
sVenviorment
p1777
I2683
sVaunts
p1778
I2669
sVeducating
p1779
I3290
sVshared
p1780
I3525
sVfloor
p1781
I2856
sVsevere
p1782
I2029
sVwithout
p1783
I138
sVsolve
p1784
I1299
sVrelief
p1785
I3398
sVcanceled
p1786
I2606
sVbodies
p1787
I1470
sVschoolers
p1788
I3546
sVoutdoor
p1789
I1511
sVgangs
p1790
I3741
sVbeing
p1791
I149
sVmoney
p1792
I245
sVsights
p1793
I1727
sVrest
p1794
I793
sVpersonaly
p1795
I2129
sVbecomeing
p1796
I2655
sVviolent
p1797
I3208
sVkill
p1798
I918
sVaspect
p1799
I1930
sVtouch
p1800
I227
sVn
p1801
I3878
sVplugged
p1802
I3134
sVspeed
p1803
I1332
sVhalfway
p1804
I2251
sVblow
p1805
I3937
sVdeath
p1806
I1387
sVgrounded
p1807
I2531
sVapplication
p1808
I2038
sVthinking
p1809
I647
sVcomptuers
p1810
I2412
sVseems
p1811
I1064
sVexcept
p1812
I1597
sVdesktop
p1813
I2364
sVblog
p1814
I2470
sVinstrument
p1815
I3367
sVlets
p1816
I354
sVsetting
p1817
I2245
sVfoor
p1818
I3568
sVexercis
p1819
I1987
sVinstructions
p1820
I2479
sVcomunicating
p1821
I3661
sVhandeye
p1822
I3209
sVcareers
p1823
I3743
sVreal
p1824
I368
sVaspects
p1825
I1758
sVaround
p1826
I165
sVkills
p1827
I3211
sVcompter
p1828
I1960
sVread
p1829
I271
sVdigital
p1830
I2200
sVbecuse
p1831
I2493
sVdark
p1832
I1321
sVfindout
p1833
I3330
sVtraffic
p1834
I3369
sVmon
p1835
I3744
sVlistening
p1836
I1081
sVworld
p1837
I88
sVlady
p1838
I2607
sVexcrise
p1839
I1809
sVdare
p1840
I2887
sVfortune
p1841
I3414
sVstranger
p1842
I1988
sVpounds
p1843
I1143
sVphotographs
p1844
I3838
sVbuddies
p1845
I2471
sVgyms
p1846
I2549
sVserves
p1847
I3110
sV've
p1848
I428
sVfacing
p1849
I2689
sVbenefit
p1850
I229
sVeither
p1851
I571
sVfully
p1852
I2371
sVbusnesses
p1853
I3077
sVreduced
p1854
I3213
sVverbal
p1855
I3007
sVexposed
p1856
I1766
sVcomuters
p1857
I1989
sVhelpfull
p1858
I1459
sVcompetition
p1859
I3938
sVcognitive
p1860
I3130
sVerase
p1861
I3745
sVarticol
p1862
I3939
sVtable
p1863
I2472
sVimages
p1864
I1931
sVtreatments
p1865
I3385
sVorganizing
p1866
I3111
sVthinks
p1867
I1208
sVprovided
p1868
I2765
sVwhould
p1869
I2888
sVperfer
p1870
I3940
sVpoorly
p1871
I2730
sVmemories
p1872
I1614
sVtube
p1873
I2532
sVstops
p1874
I2096
sVcritical
p1875
I2064
sVprovides
p1876
I1123
sVbraindead
p1877
I3549
sVconsidering
p1878
I2409
sVsaftey
p1879
I2031
sVfelt
p1880
I1509
sVscientific
p1881
I3370
sVpower
p1882
I861
sVseconds
p1883
I649
sVfitness
p1884
I1728
sVcommunicate
p1885
I215
sVbroken
p1886
I1932
sVexciting
p1887
I1791
sVthrow
p1888
I1706
sVon
p1889
I11
sVstone
p1890
I2130
sVok
p1891
I1416
sVoh
p1892
I1232
sVothe
p1893
I2065
sVof
p1894
I14
sVindustry
p1895
I2533
sVviolence
p1896
I1933
sVfavorite
p1897
I651
sVbonding
p1898
I2792
sVthousands
p1899
I712
sVpractical
p1900
I3113
sVfell
p1901
I3697
sVstand
p1902
I1124
sVneighbor
p1903
I1874
sVact
p1904
I932
sVov
p1905
I3944
sVou
p1906
I3215
sVbond
p1907
I1759
sVor
p1908
I29
sVroad
p1909
I2066
sVop
p1910
I3216
sVresearching
p1911
I805
sVlands
p1912
I3114
sVdecreased
p1913
I2869
sVburning
p1914
I1990
sVteamwork
p1915
I3008
sVcommunication
p1916
I260
sVimage
p1917
I2308
sVnoone
p1918
I3027
sVaccounts
p1919
I1848
sVhomeless
p1920
I3807
sVparties
p1921
I2309
sVelementary
p1922
I2608
sVwebsights
p1923
I2767
sVlastly
p1924
I248
sVnowadays
p1925
I1288
sVyour
p1926
I28
sVstare
p1927
I1388
sVtropical
p1928
I3371
sVlog
p1929
I941
sVher
p1930
I222
sVarea
p1931
I1106
sVdistracted
p1932
I1181
sVhey
p1933
I2076
sVadicting
p1934
I2609
sVstart
p1935
I334
sVmindless
p1936
I3372
sVlow
p1937
I1792
sVlot
p1938
I133
sVcultures
p1939
I687
sVbubble
p1940
I3373
sVmaterials
p1941
I2664
sVchats
p1942
I1580
sVrelie
p1943
I2768
sVcomplete
p1944
I1032
sVdelayed
p1945
I3552
sVexcersizing
p1946
I1696
sVcabinet
p1947
I3217
sVbookstore
p1948
I3749
sVended
p1949
I1682
sVheathy
p1950
I3993
sVcorse
p1951
I3750
sVtechnologies
p1952
I2133
sVtrying
p1953
I462
sVwith
p1954
I25
sVcopied
p1955
I3820
sVbuying
p1956
I963
sVhappening
p1957
I675
sVpull
p1958
I1374
sVrush
p1959
I1991
sVapplying
p1960
I3945
sVromantic
p1961
I3115
sVpostive
p1962
I2367
sVorganize
p1963
I1380
sVgrass
p1964
I2769
sVagree
p1965
I226
sVexpect
p1966
I2258
sVstrongly
p1967
I638
sVgone
p1968
I708
sVad
p1969
I1993
sVvideos
p1970
I369
sVcertain
p1971
I558
sVignorant
p1972
I2625
sVmoved
p1973
I588
sVsales
p1974
I2032
sVdeep
p1975
I2414
sVgeneral
p1976
I1316
sVimagination
p1977
I2692
sVas
p1978
I57
sVar
p1979
I1072
sVtogether
p1980
I423
sVfile
p1981
I1732
sVwalks
p1982
I1875
sVvidio
p1983
I2135
sVlifetime
p1984
I2209
sVmoves
p1985
I1632
sVhospitals
p1986
I3553
sVspends
p1987
I780
sVfill
p1988
I2067
sVagain
p1989
I500
sVyoga
p1990
I1876
sVexcersicing
p1991
I3218
sVdirect
p1992
I2734
sVdrivers
p1993
I3751
sVfarther
p1994
I3179
sVcyberbullying
p1995
I1832
sV@dr
p1996
I1692
sVfield
p1997
I1456
sVvalid
p1998
I3555
sVsomeones
p1999
I1994
sVyou
p2000
I8
sVtrash
p2001
I1961
sVyor
p2002
I2368
sVgaining
p2003
I1221
sVpolar
p2004
I3009
sVobsessed
p2005
I1654
sVseparate
p2006
I2771
sVstudents
p2007
I209
sVa+
p2008
I2136
sVincludes
p2009
I1962
sVcomputerized
p2010
I3010
sVimportant
p2011
I152
sVfinaly
p2012
I1849
sVbuisnesses
p2013
I915
sVstocks
p2014
I1850
sVpool
p2015
I3011
sVbuilding
p2016
I1389
sVcalls
p2017
I1524
sVwife
p2018
I1741
sVinvest
p2019
I3949
sVtricks
p2020
I2311
sVwebsites
p2021
I169
sVhello
p2022
I1882
sVposts
p2023
I3898
sVcouse
p2024
I3012
sVpassed
p2025
I2615
sVu
p2026
I1655
sValright
p2027
I3753
sVoverseas
p2028
I3557
sVsongs
p2029
I2166
sVstarting
p2030
I952
sVcpu
p2031
I3305
sVmiltary
p2032
I3754
sVall
p2033
I39
sVmotem
p2034
I3862
sVforget
p2035
I497
sVpointing
p2036
I3558
sVdonated
p2037
I3890
sVcaused
p2038
I916
sVlack
p2039
I599
sVdollar
p2040
I3755
sVmonth
p2041
I1107
sVcalifornia
p2042
I3715
sVstuding
p2043
I3634
sVreson
p2044
I1277
sVfollow
p2045
I3951
sVfaster
p2046
I352
sVdecisions
p2047
I2473
sVchildren
p2048
I190
sVcauses
p2049
I964
sVcontent
p2050
I2191
sVtv
p2051
I1355
sVopportunities
p2052
I1471
sVlaughing
p2053
I1995
sVto
p2054
I5
sVprogram
p2055
I772
sVwants
p2056
I601
sVth
p2057
I2537
sVti
p2058
I1996
sVhealth
p2059
I264
sVenjoying
p2060
I330
sVpresentation
p2061
I1963
sVactivities
p2062
I501
sVwoman
p2063
I1964
sVfriends/family
p2064
I1708
sVworse
p2065
I801
sVspreading
p2066
I2413
sVsitting
p2067
I329
sVvery
p2068
I104
sVfaw
p2069
I3953
sVfat
p2070
I538
sVoccasionally
p2071
I3963
sVchores
p2072
I2253
sVworst
p2073
I1233
sVdecide
p2074
I851
sVfall
p2075
I1254
sVawful
p2076
I2773
sVticket
p2077
I1742
sVdifference
p2078
I1513
sVobeisity
p2079
I3378
sVfourth
p2080
I3906
sVtreating
p2081
I3955
sVenviroment
p2082
I3291
sVmothers
p2083
I3117
sVcelebrity
p2084
I3756
sVlist
p2085
I1472
sVjoined
p2086
I1877
sVconvienent
p2087
I3118
sVlarge
p2088
I833
sVcollect
p2089
I3995
sVsmall
p2090
I818
sVtypers
p2091
I3559
sVteh
p2092
I3221
sVquicker
p2093
I719
sVneighborhood
p2094
I2416
sVportable
p2095
I2417
sVten
p2096
I656
sVstreets
p2097
I1289
sVcash
p2098
I3931
sVpast
p2099
I604
sVrate
p2100
I888
sVinvention
p2101
I718
sVdesign
p2102
I1743
sVperspective
p2103
I2693
sVpass
p2104
I933
sVfurther
p2105
I1348
sVrectangular
p2106
I3825
sVsould
p2107
I3090
sVbelief
p2108
I2901
sVtrick
p2109
I3541
sVwhat
p2110
I77
sVimprovement
p2111
I3408
sVfacebooking
p2112
I3956
sVsun
p2113
I1265
sVsum
p2114
I1417
sVwhay
p2115
I3222
sVexersice
p2116
I1250
sVscientists
p2117
I1135
sVlearned
p2118
I548
sVracing
p2119
I3223
sVpublic
p2120
I925
sVmovement
p2121
I2418
sVoutgoing
p2122
I3757
sVfull
p2123
I846
sVma
p2124
I2399
sVtikets
p2125
I3793
sVloose
p2126
I898
sVposes
p2127
I3325
sVanswers
p2128
I1249
sVhours
p2129
I231
sVsmartest
p2130
I2891
sVtracks
p2131
I3560
sVobeise
p2132
I3896
sVeassy
p2133
I2892
sVexcess
p2134
I3505
sVdirections
p2135
I707
sVstrong
p2136
I942
sVsomthing
p2137
I1701
sVaddictions
p2138
I3561
sVsearch
p2139
I301
sVahead
p2140
I1560
sVdifficulty
p2141
I2696
sVverry
p2142
I3958
sVengineers
p2143
I3988
sVallows
p2144
I331
sVexperience
p2145
I521
sVpics
p2146
I2539
sVsoldier
p2147
I2610
sVamount
p2148
I436
sVhealthier
p2149
I1136
sVarent
p2150
I836
sVsocial
p2151
I221
sVaction
p2152
I1760
sVoptions
p2153
I1525
sVstruggle
p2154
I3667
sVheadache
p2155
I3576
sVvia
p2156
I1073
sVfollowed
p2157
I3381
sVfamily
p2158
I54
sVsuddenly
p2159
I2774
sVscreens
p2160
I1418
sVput
p2161
I337
sVindoors
p2162
I1480
sVtoys
p2163
I3013
sVw/
p2164
I3500
sVattendance
p2165
I2893
sVeye
p2166
I259
sVtakes
p2167
I528
sVimproves
p2168
I1763
sVdestination
p2169
I1936
sVtexting
p2170
I1151
sVtwo
p2171
I403
sVsocialization
p2172
I2775
sVerror
p2173
I3281
sVimplore
p2174
I2894
sVgorgeous
p2175
I3382
sVtaken
p2176
I720
sVkick
p2177
I3060
sVminor
p2178
I3226
sVmore
p2179
I47
sVteen
p2180
I917
sVasks
p2181
I2338
sVdoor
p2182
I1481
sVknows
p2183
I782
sVcompany
p2184
I658
sVtasking
p2185
I2420
sVexcuse
p2186
I1906
sVflag
p2187
I3227
sVbasically
p2188
I856
sVbroke
p2189
I1709
sVparticular
p2190
I3760
sVknown
p2191
I842
sVrelized
p2192
I3572
sVhurry
p2193
I3563
sVnegativity
p2194
I2895
sVaddicts
p2195
I3885
sVtown
p2196
I611
sVhardware
p2197
I2567
sVkeeping
p2198
I678
sVinclude
p2199
I2794
sVprogressing
p2200
I3830
sVhour
p2201
I420
sVstrain
p2202
I2210
sVscience
p2203
I713
sVsocialy
p2204
I2896
sVreserch
p2205
I3581
sVmall
p2206
I1375
sVparagraph
p2207
I1182
sVnine
p2208
I1561
sVresources
p2209
I1212
sVevolved
p2210
I2315
sVlearn
p2211
I72
sVtheis
p2212
I3865
sVhistory
p2213
I496
sVbeautiful
p2214
I641
sVpotatoe
p2215
I3903
sVcompare
p2216
I1937
sVneeding
p2217
I2776
sVprompt
p2218
I2316
sVchallenging
p2219
I3959
sVimpacts
p2220
I2541
sVstated
p2221
I788
sVwedsites
p2222
I3297
sVvoilence
p2223
I3050
sVfunctions
p2224
I3649
sVshare
p2225
I853
sVtaht
p2226
I2422
sVstates
p2227
I631
sVpushed
p2228
I3014
sVnumbers
p2229
I1152
sVsense
p2230
I1543
sVpond
p2231
I3960
sVairplane
p2232
I3961
sVspecies
p2233
I2174
sVfirmly
p2234
I2611
sV!
p2235
I80
sVinformation
p2236
I96
sVneeds
p2237
I421
sVt.v
p2238
I1442
sVbat
p2239
I2934
sVrather
p2240
I362
sVcomfort
p2241
I1405
sVconducted
p2242
I1940
sVstayed
p2243
I1562
sVmaps
p2244
I1183
sVstrategy
p2245
I3645
sVmovements
p2246
I3119
sVexplains
p2247
I3964
sVplant
p2248
I2137
sVshouldnt
p2249
I2254
sVokay
p2250
I1162
sVplans
p2251
I879
sVrude
p2252
I1710
sVcommunicating
p2253
I671
sVsuppose
p2254
I1576
sVadvice
p2255
I1406
sVsoda
p2256
I2738
sVacess
p2257
I1675
sVreplace
p2258
I2105
sVplane
p2259
I988
sVblood
p2260
I2068
sVcoming
p2261
I747
sVsloppy
p2262
I2754
sVconcentrating
p2263
I3965
sVresponse
p2264
I1938
sVfo
p2265
I2033
sVa
p2266
I9
sVresons
p2267
I2034
sVshort
p2268
I1366
sVadiction
p2269
I3966
sVloud
p2270
I2193
sVsence
p2271
I2469
sVeats
p2272
I2212
sVanytime
p2273
I1563
sVrecipie
p2274
I3763
sVperhaps
p2275
I1860
sVgadgets
p2276
I3857
sVresponsibility
p2277
I1939
sVtelephones
p2278
I3015
sVmedia
p2279
I2363
sVputting
p2280
I1228
sVplaying
p2281
I223
sVtrough
p2282
I3603
sVphotoshop
p2283
I3565
sVhelp
p2284
I58
sVdeveloped
p2285
I2255
sVflowers
p2286
I2998
sVcomputres
p2287
I3566
sVsoon
p2288
I709
sVinstalled
p2289
I2542
sVheld
p2290
I2370
sVisnt
p2291
I1744
sVpaper
p2292
I257
sVthrough
p2293
I228
sVreconnect
p2294
I1311
sVsigns
p2295
I2898
sVsuffer
p2296
I1582
sVinsted
p2297
I1097
sVdont
p2298
I204
sVcomputors
p2299
I943
sVstyle
p2300
I1965
sVrapidly
p2301
I2317
sVsale
p2302
I2668
sVactually
p2303
I399
sVlate
p2304
I1000
sVresearcher
p2305
I3863
sVindividuals
p2306
I3415
sVruining
p2307
I1427
sVasignments
p2308
I3628
sVspeech
p2309
I3765
sVbout
p2310
I2478
sVsoccer
p2311
I1312
sVmight
p2312
I238
sVfool
p2313
I2612
sVwouldn
p2314
I3229
sVhurting
p2315
I1184
sVgood
p2316
I76
sVsomebody
p2317
I820
sVcalm
p2318
I2650
sVyo
p2319
I1711
sVseverely
p2320
I3389
sVfood
p2321
I587
sVcorrdination
p2322
I2576
sVlargest
p2323
I3268
sVsocially
p2324
I2213
sVpredator
p2325
I2256
sVprimary
p2326
I3864
sVoponion
p2327
I3767
sVobeasity
p2328
I2257
sVfancy
p2329
I3567
sVchating
p2330
I926
sVfoot
p2331
I3018
sVcomplain
p2332
I2421
sVbigger
p2333
I1526
sVsucked
p2334
I1998
sVeasily
p2335
I431
sVdocument
p2336
I1558
sVeverytime
p2337
I1167
sValways
p2338
I189
sVpayed
p2339
I3020
sVcourses
p2340
I2899
sVhabits
p2341
I1656
sVstopped
p2342
I1290
sVpredators
p2343
I1222
sVturns
p2344
I2023
sVfound
p2345
I365
sVshocking
p2346
I3390
sVfriendship
p2347
I1745
sVnotes
p2348
I1234
sVlifestyles
p2349
I3569
sVheavy
p2350
I1793
sVstatus
p2351
I1878
sVharm
p2352
I1117
sVeveryone
p2353
I198
sVmental
p2354
I1822
sVweight
p2355
I382
sVnegetive
p2356
I3021
sVgeneration
p2357
I872
sVhouse
p2358
I315
sVenergy
p2359
I1051
sVhard
p2360
I397
sVreduce
p2361
I2318
sVidea
p2362
I470
sVkidnapping
p2363
I3570
sVconnect
p2364
I400
sVadays
p2365
I1908
sVbeyond
p2366
I2175
sVpappers
p2367
I3969
sVevent
p2368
I2035
sVreally
p2369
I167
sVtakeing
p2370
I3391
sVdeals
p2371
I3246
sVlovers
p2372
I2695
sVmissed
p2373
I1322
sVwondered
p2374
I2097
sVsolved
p2375
I1535
sVbullied
p2376
I1088
sVsince
p2377
I373
sVpublish
p2378
I2613
sVresearch
p2379
I201
sVminuets
p2380
I3758
sVconclusions
p2381
I3312
sVsafety
p2382
I1042
sVcomputer.
p2383
I3769
sVprint
p2384
I768
sVoffline
p2385
I2543
sVissue
p2386
I584
sVoccurs
p2387
I3392
sVhighway
p2388
I2900
sVbye
p2389
I3256
sVdrink
p2390
I2943
sVdowns
p2391
I2654
sVbully
p2392
I2214
sVrisen
p2393
I2902
sVupon
p2394
I1240
sVyale
p2395
I3899
sVguess
p2396
I1376
sVhouses
p2397
I1291
sVreason
p2398
I102
sVshoping
p2399
I2138
sVmembers
p2400
I512
sVimagine
p2401
I509
sVask
p2402
I434
sVteach
p2403
I225
sVash
p2404
I3571
sVbeginning
p2405
I1823
sVhavent
p2406
I1351
sVthrown
p2407
I3970
sVdefinition
p2408
I2544
sVowners
p2409
I2139
sVbenefits
p2410
I322
sVcomputers
p2411
I10
sVterrible
p2412
I1108
sVamericas
p2413
I3573
sVamerican
p2414
I1794
sVbusinessmen
p2415
I3574
sVthreat
p2416
I2260
sVtwenty
p2417
I1729
sVfallen
p2418
I3971
sVassign
p2419
I3023
sVfeed
p2420
I2778
sVwebcams
p2421
I1313
sVmajor
p2422
I679
sVunhealthy
p2423
I479
sVsomeday
p2424
I2803
sVfeel
p2425
I284
sVrelate
p2426
I2098
sVbullies
p2427
I2069
sVnumber
p2428
I490
sVwelcome
p2429
I2987
sVtraveled
p2430
I3230
sVfeet
p2431
I2119
sVsisters
p2432
I3831
sVdone
p2433
I274
sVwach
p2434
I3840
sVwebcame
p2435
I3022
sVslower
p2436
I3231
sVmiss
p2437
I602
sVstory
p2438
I843
sVheads
p2439
I2903
sVguest
p2440
I3393
sVintresting
p2441
I3879
sVintroduction
p2442
I2904
sVleading
p2443
I1598
sVinteract
p2444
I299
sVporn
p2445
I3900
sVthreatening
p2446
I3394
sVleast
p2447
I381
sV@person
p2448
I144
sVpaint
p2449
I3121
sVwonderful
p2450
I776
sVwarming
p2451
I1605
sVstatement
p2452
I1300
sVrates
p2453
I2345
sVessays
p2454
I880
sVhundred
p2455
I1761
sVfinances
p2456
I2780
sVstore
p2457
I555
sVlisted
p2458
I2837
sVmuscles
p2459
I1730
sVoption
p2460
I1473
sVrelationship
p2461
I1102
sVbehind
p2462
I1150
sVhotel
p2463
I1966
sVpark
p2464
I704
sVinterviewed
p2465
I2319
sVinternent
p2466
I1657
sVpart
p2467
I356
sVboredom
p2468
I2619
sVdoctors
p2469
I869
sVfocusing
p2470
I2906
sValbums
p2471
I3029
sVbelieve
p2472
I157
sVstairs
p2473
I2545
sVbodys
p2474
I3671
sVtacking
p2475
I3772
sVtraps
p2476
I3545
sVimformation
p2477
I2036
sVking
p2478
I3973
sVkind
p2479
I697
sVgrew
p2480
I2177
sVbag
p2481
I3677
sVhorizons
p2482
I3122
sVgotten
p2483
I953
sVpc
p2484
I3986
sVbeileve
p2485
I3395
sVyouth
p2486
I1349
sVnevertheless
p2487
I3832
sVfamilys
p2488
I1153
sVsupposed
p2489
I1457
sVoutdoors
p2490
I711
sVelaborate
p2491
I3285
sVtoward
p2492
I1910
sVinteractive
p2493
I1350
sVmotivation
p2494
I3233
sVexercing
p2495
I2886
sVoutstanding
p2496
I2099
sVwasnt
p2497
I2616
sVfights
p2498
I1999
sVages
p2499
I904
sVrainforest
p2500
I3770
sVbasicly
p2501
I2140
sVcontrary
p2502
I3983
sVselling
p2503
I1909
sValike
p2504
I3975
sVorders
p2505
I2698
sVsell
p2506
I1103
sVlie
p2507
I1634
sVnights
p2508
I3976
sVbuilt
p2509
I1458
sVdepending
p2510
I2215
sVself
p2511
I989
sVofficers
p2512
I3025
sVespecialy
p2513
I3773
sVcouch
p2514
I1185
sVmajority
p2515
I1154
sVcosts
p2516
I1207
sVbuild
p2517
I905
sVsomtimes
p2518
I2908
sVfinding
p2519
I662
sVgym
p2520
I822
sVwithour
p2521
I3935
sVfolders
p2522
I2423
sVplay
p2523
I146
sVtowards
p2524
I1795
sVelectric
p2525
I2480
sVmoms
p2526
I3912
sVquote
p2527
I2618
sVvictim
p2528
I2163
sVreach
p2529
I1267
sVchart
p2530
I2216
sVreact
p2531
I2481
sVmost
p2532
I132
sVvirus
p2533
I1074
sVexperiences
p2534
I2037
sVplan
p2535
I745
sVcmputer
p2536
I3418
sVnothing
p2537
I371
sVextremely
p2538
I684
sVexersising
p2539
I2909
sV@percent
p2540
I131
sVdealers
p2541
I3977
sVwindows
p2542
I3978
sVclear
p2543
I1568
sVsometimes
p2544
I327
sVcover
p2545
I3399
sVluckily
p2546
I2781
sVconvient
p2547
I1986
sVclean
p2548
I1292
sVweigh
p2549
I2699
sVusual
p2550
I3269
sVmicrosoft
p2551
I1323
sVlying
p2552
I3979
sVjoining
p2553
I3775
sVfone
p2554
I3980
sVcelebrities
p2555
I3028
sVregisters
p2556
I3579
sVbusinesses
p2557
I1255
sVnewest
p2558
I1888
sVhopped
p2559
I3776
sVsweaty
p2560
I3433
sVfine
p2561
I786
sVfind
p2562
I115
sVcosting
p2563
I3235
sVimpact
p2564
I610
sVcell
p2565
I753
sVgiant
p2566
I2217
sVdepended
p2567
I3777
sVconvinced
p2568
I2782
sVruin
p2569
I1052
sVwriter
p2570
I1879
sVexersise
p2571
I934
sVstarters
p2572
I2783
sVfailed
p2573
I2141
sVflights
p2574
I2620
sVexperiment
p2575
I3606
sVsurveyed
p2576
I1564
sVpretty
p2577
I837
sVfactor
p2578
I1762
sVdiscuss
p2579
I2601
sVvocab
p2580
I3396
sVablity
p2581
I3947
sVhis
p2582
I250
sVhit
p2583
I979
sVaccross
p2584
I3742
sVdependent
p2585
I1482
sVconnections
p2586
I1415
sVexpress
p2587
I2218
sVsunny
p2588
I1693
sVgrocery
p2589
I3024
sVtrees
p2590
I751
sVcheaper
p2591
I1583
sVfamous
p2592
I863
sVfeels
p2593
I2178
sVvaluable
p2594
I804
sVtheft
p2595
I2424
sVinternational
p2596
I2400
sVhomeworks
p2597
I2179
sVduring
p2598
I763
sVsnowing
p2599
I2827
sVworkouts
p2600
I3031
sVhim
p2601
I402
sVdistraction
p2602
I1377
sVcatches
p2603
I3580
sVgenerally
p2604
I1926
sVefficiant
p2605
I2700
sVdoubled
p2606
I3779
sVbanking
p2607
I3403
sVstored
p2608
I3833
sVcommon
p2609
I906
sVactivity
p2610
I873
sVwrote
p2611
I1599
sVrestaurants
p2612
I3781
sVset
p2613
I727
sVart
p2614
I1967
sVluxury
p2615
I3490
sVcreator
p2616
I3780
sVthrowing
p2617
I3032
sVintelligence
p2618
I2784
sVbrake
p2619
I2588
sVsex
p2620
I2320
sVculture
p2621
I764
sVsee
p2622
I92
sVindividual
p2623
I2426
sVsec
p2624
I2911
sVare
p2625
I18
sVsea
p2626
I3404
sVclose
p2627
I589
sVnations
p2628
I2280
sVarm
p2629
I2632
sVobeseity
p2630
I2912
sV#
p2631
I2142
sVlearns
p2632
I3237
sVthreats
p2633
I2785
sVdesigned
p2634
I2468
sVexpert
p2635
I1053
sVuseing
p2636
I1168
sVmovie
p2637
I892
sVwow
p2638
I2621
sVcurrently
p2639
I2321
sVplease
p2640
I553
sVheading
p2641
I3298
sVlibraries
p2642
I2261
sVcase
p2643
I1101
sVfans
p2644
I2701
sVwon
p2645
I1565
sVvarious
p2646
I1268
sVbenefiting
p2647
I1371
sVbenfits
p2648
I3123
sVprobably
p2649
I391
sVburned
p2650
I3782
sVamarica
p2651
I3449
sVnumerous
p2652
I1968
sVthrive
p2653
I3405
sVrisks
p2654
I1676
sVavailable
p2655
I1271
sVrecently
p2656
I650
sVcreating
p2657
I2100
sVmissing
p2658
I733
sVsold
p2659
I3238
sVattention
p2660
I657
sVarms
p2661
I3656
sVsucceed
p2662
I2482
sVcoffee
p2663
I3406
sVbecous
p2664
I3934
sVrelying
p2665
I2483
sVboth
p2666
I590
sVc
p2667
I3633
sVenables
p2668
I1924
sVlast
p2669
I237
sVsenery
p2670
I3548
sVrestaurant
p2671
I2702
sVbarely
p2672
I1544
sVforeign
p2673
I778
sVconnection
p2674
I1324
sVbecame
p2675
I930
sValow
p2676
I3124
sValot
p2677
I298
sVoovoo
p2678
I1941
sVgoverment
p2679
I2323
sVfocused
p2680
I1444
sVwhole
p2681
I383
sVfinds
p2682
I2484
sVload
p2683
I2143
sVliked
p2684
I3033
sVconsume
p2685
I2703
sVhackers
p2686
I2180
sVpoint
p2687
I463
sVsimple
p2688
I554
sVsky
p2689
I3271
sVcommunity
p2690
I794
sVpepol
p2691
I3919
sVnewborn
p2692
I3787
sVfashion
p2693
I2088
sVsimply
p2694
I603
sVlikes
p2695
I1104
sS'<num>'
p2696
I2
sVadresses
p2697
I2990
sVexpensive
p2698
I825
sVheadaches
p2699
I2427
sVdecline
p2700
I2262
sVconsuming
p2701
I1257
sVfrinds
p2702
I3409
sVraise
p2703
I2428
sVcreate
p2704
I663
sVdue
p2705
I507
sVearthquake
p2706
I973
sVhitting
p2707
I2914
sVwhom
p2708
I1044
sVbuisness
p2709
I734
sVcanser
p2710
I2915
sVcollected
p2711
I3584
sVsoftwares
p2712
I2201
sVmeeting
p2713
I779
sVwoke
p2714
I3987
sVpm
p2715
I2485
sVsiting
p2716
I2263
sVlived
p2717
I1498
sVflight
p2718
I1293
sVboy
p2719
I1296
sVfire
p2720
I1880
sVchatted
p2721
I3125
sVmentaly
p2722
I3585
sVgas
p2723
I1020
sVthatn
p2724
I2916
sVelse
p2725
I439
sVfund
p2726
I2546
sVmoderation
p2727
I1428
sVlives
p2728
I203
sVdemand
p2729
I3239
sVprices
p2730
I1942
sVtowns
p2731
I2000
sVwash
p2732
I3299
sVhonest
p2733
I2602
sVplants
p2734
I1505
sVforty
p2735
I3481
sVhighest
p2736
I2806
sVstolen
p2737
I1419
sVlook
p2738
I140
sVstraight
p2739
I1209
sVbill
p2740
I612
sVsmile
p2741
I2889
sVforgetting
p2742
I2236
sVwhile
p2743
I232
sVreplaced
p2744
I2704
sVhomework
p2745
I176
sVimpacted
p2746
I2861
sVfun
p2747
I158
sVanimated
p2748
I3586
sVnatures
p2749
I2828
sVtheres
p2750
I760
sVswim
p2751
I2001
sVthoes
p2752
I3989
sVexpierence
p2753
I3070
sVhoping
p2754
I2917
sVcalculator
p2755
I2002
sVstations
p2756
I2690
sVreads
p2757
I3034
sVitself
p2758
I1584
sVskype
p2759
I1014
sVready
p2760
I1144
sVrid
p2761
I1046
sVfunny
p2762
I1169
sVaroung
p2763
I3368
sVanymore
p2764
I624
sVgovernment
p2765
I1775
sVcooridination
p2766
I3410
sVrules
p2767
I3411
sVvirtually
p2768
I1764
sVpeoples
p2769
I425
sVproducts
p2770
I1797
sVadvise
p2771
I2786
sVhigher
p2772
I1126
sVdevelopment
p2773
I3126
sVused
p2774
I181
sVlawyers
p2775
I3590
sVtower
p2776
I3212
sVmountain
p2777
I3240
sVkeys
p2778
I1301
sVassignment
p2779
I1021
sVoverweight
p2780
I667
sVyesterday
p2781
I1824
sValert
p2782
I2547
sVmoment
p2783
I1825
sVlevels
p2784
I2907
sVmoving
p2785
I742
sVuser
p2786
I944
sVnecessity
p2787
I1694
sVclimb
p2788
I3800
sVrecent
p2789
I567
sVlacrosse
p2790
I3127
sVearly
p2791
I1905
sVlower
p2792
I1269
sVtask
p2793
I1155
sVbonds
p2794
I2357
sVolder
p2795
I865
sVpeople.
p2796
I3241
sVanybody
p2797
I1025
sVobviously
p2798
I1499
sVperson
p2799
I162
sVcheer
p2800
I2787
sVmachinery
p2801
I3990
sVorganization
p2802
I2281
sVspend
p2803
I118
sVknow
p2804
I71
sVsims
p2805
I3412
sVdistances
p2806
I3035
sVabilities
p2807
I1853
sVmom
p2808
I416
sVobserved
p2809
I3501
sVup-to-date
p2810
I2798
sVnit
p2811
I3508
sVisolated
p2812
I3128
sVdistracting
p2813
I1186
sVshape
p2814
I1054
sVquestions
p2815
I723
sVusing
p2816
I135
sVlove
p2817
I385
sValternative
p2818
I2429
sVcontinent
p2819
I3992
sVletting
p2820
I1055
sVtables
p2821
I3242
sVcut
p2822
I660
sValso
p2823
I43
sVhated
p2824
I3791
sVworkers
p2825
I931
sVadvertisements
p2826
I2003
sVexercising
p2827
I243
sVsource
p2828
I476
sVsubjects
p2829
I1783
sVparents
p2830
I288
sVlocation
p2831
I1765
sVpresidents
p2832
I3802
sVsnap
p2833
I3129
sVschoolwork
p2834
I1566
sVexcited
p2835
I2220
sVsurprised
p2836
I2144
sVuseless
p2837
I2617
sV...
p2838
I746
sVcustomers
p2839
I2487
sVwil
p2840
I3607
sVvictims
p2841
I2548
sVforces
p2842
I2965
sVemergency
p2843
I2004
sVbig
p2844
I277
sVcouple
p2845
I862
sVunlimited
p2846
I3243
sVjudgement
p2847
I2706
sVmatters
p2848
I2707
sVgame
p2849
I256
sVtruely
p2850
I2221
sVreal-life
p2851
I3734
sVcrisp
p2852
I2949
sVbit
p2853
I1001
sVprojects
p2854
I380
sVhelpful
p2855
I235
sVsuccess
p2856
I1911
sVedline
p2857
I3682
sVignorance
p2858
I3454
sVinnapropriate
p2859
I3593
sVignore
p2860
I1723
sVcommunications
p2861
I2325
sVharrased
p2862
I3617
sVcontinue
p2863
I749
sVtranslators
p2864
I3996
sVpopular
p2865
I639
sVtechnologie
p2866
I2851
sVessential
p2867
I1065
sVgoogle
p2868
I539
sVoften
p2869
I477
sVabsolutely
p2870
I1586
sVexcessories
p2871
I3997
sVpals
p2872
I2919
sVsuicides
p2873
I2598
sVsome
p2874
I81
sVback
p2875
I280
sVtrends
p2876
I3594
sVadded
p2877
I3234
sVpalm
p2878
I3417
sVexamples
p2879
I1227
sVsight
p2880
I847
sVkinda
p2881
I3276
sVcurious
p2882
I2920
sVserver
p2883
I3792
sVourselves
p2884
I1751
sVleaders
p2885
I2658
sVdelivered
p2886
I3596
sVgradually
p2887
I3998
sVand/or
p2888
I1615
sVcontacts
p2889
I2430
sVclosest
p2890
I3543
sVaffects
p2891
I737
sVdecision
p2892
I1022
sVpros
p2893
I1527
sVper
p2894
I1587
sVgateway
p2895
I3141
sVpen
p2896
I2222
sVcivilization
p2897
I3036
sVconnecting
p2898
I1514
sVeliminate
p2899
I2708
sVtends
p2900
I3999
sVwares
p2901
I3440
sVdating
p2902
I1616
sVclosely
p2903
I3402
sVforgets
p2904
I3037
sVminimal
p2905
I3597
sVt
p2906
I1497
sVbe
p2907
I30
sVeating
p2908
I635
sVperformed
p2909
I3249
sVeffecting
p2910
I1474
sVconfidence
p2911
I2929
sVbu
p2912
I3419
sVstep
p2913
I864
sVnegatives
p2914
I3038
sVinfact
p2915
I3554
sVby
p2916
I97
sVwildlife
p2917
I2550
sVanything
p2918
I218
sVcompleting
p2919
I2488
sVfavor
p2920
I3265
sVdrama
p2921
I2071
sVrange
p2922
I2788
sVinvolving
p2923
I2966
sVmessaging
p2924
I576
sVlibery
p2925
I3420
sVconsequently
p2926
I3132
sVblock
p2927
I1636
sVarticals
p2928
I3868
sVseeing
p2929
I560
sVplenty
p2930
I1411
sVinto
p2931
I233
sVwithin
p2932
I899
sVservers
p2933
I3421
sVservices
p2934
I3774
sVappropriate
p2935
I2145
sVprimarily
p2936
I2921
sVinternets
p2937
I3365
sVlesson
p2938
I3133
sVchirping
p2939
I3422
sVstatistics
p2940
I1083
sVarcade
p2941
I3423
sVspending
p2942
I180
sVsmoothly
p2943
I3798
sVquestion
p2944
I481
sVfast
p2945
I393
sVeventhough
p2946
I2184
sVordered
p2947
I2377
sVthirdly
p2948
I1318
sVcamera
p2949
I1713
sVaddicting
p2950
I632
sVforward
p2951
I1659
sVbored
p2952
I505
sVanywere
p2953
I2514
sVscared
p2954
I2103
sVfiles
p2955
I1026
sVhimself
p2956
I2376
sVinvite
p2957
I1943
sVperduce
p2958
I3598
sVrelaxed
p2959
I2922
sVboys
p2960
I2072
sVproperly
p2961
I1796
sVlink
p2962
I1767
sValive
p2963
I3836
sVnewer
p2964
I3039
sVharming
p2965
I2745
sVline
p2966
I643
sVdull
p2967
I3040
sVraising
p2968
I3244
sVposted
p2969
I1617
sVinfo
p2970
I597
sVgeting
p2971
I1545
sVpeopel
p2972
I1912
sVup
p2973
I78
sVus
p2974
I93
sVur
p2975
I2326
sVplanet
p2976
I975
sVcams
p2977
I2282
sV're
p2978
I252
sVmature
p2979
I3424
sVrumors
p2980
I3066
sVok.
p2981
I2694
sVsimilar
p2982
I3041
sVcalled
p2983
I544
sVwell-known
p2984
I3019
sVyelled
p2985
I3426
sVbell
p2986
I2913
sVstoring
p2987
I2551
sVdevastating
p2988
I2241
sVconstant
p2989
I2073
sVadults
p2990
I281
sVlikewise
p2991
I2924
sVinfluence
p2992
I1319
sVbenfit
p2993
I2789
sVunreasonable
p2994
I3577
sVdeprive
p2995
I2709
sVe-mails
p2996
I1210
sVsingle
p2997
I1187
sVcure
p2998
I2431
sVevening
p2999
I3017
sVchat
p3000
I159
sVthier
p3001
I665
sVgoign
p3002
I3600
sVrainy
p3003
I1854
sVnad
p3004
I3601
sVamounts
p3005
I1443
sVfixing
p3006
I2552
sVteams
p3007
I1947
sVpreventing
p3008
I1881
sVclicking
p3009
I1520
sVout-of-state
p3010
I3538
sVpoints
p3011
I1399
sVelectrical
p3012
I3602
sVpeopl
p3013
I2521
sVdepartment
p3014
I3042
sVaunt
p3015
I1492
sVactuly
p3016
I3427
sVnice
p3017
I473
sVexplaining
p3018
I3135
sVdraw
p3019
I1391
sVdevelope
p3020
I2791
sVusers
p3021
I724
sVbeatiful
p3022
I3136
sVproblems
p3023
I376
sVrobots
p3024
I2925
sVprepared
p3025
I2710
sVhelping
p3026
I522
sVmeaning
p3027
I1934
sVallowing
p3028
I1528
sVunwind
p3029
I3616
sVdouble
p3030
I3974
sVsides
p3031
I2132
sVconvinent
p3032
I2476
sVago
p3033
I690
sVland
p3034
I2553
sVhappier
p3035
I1127
sVpractically
p3036
I1913
sVage
p3037
I461
sVrequired
p3038
I1500
sVyoutube
p3039
I765
sVwalked
p3040
I2554
sVheath
p3041
I2624
sVscans
p3042
I3814
sVcarrying
p3043
I3436
sVunhealty
p3044
I3492
sVfar
p3045
I214
sVfresh
p3046
I546
sVrequires
p3047
I2039
sVhaving
p3048
I183
sVonce
p3049
I350
sVessay
p3050
I485
sVevidence
p3051
I3516
sVbroaden
p3052
I2555
sVlaziness
p3053
I2926
sVresults
p3054
I1211
sVwebchat
p3055
I2328
sVenjoyable
p3056
I1485
sVgroceries
p3057
I2432
sVgo
p3058
I49
sV@date
p3059
I246
sVcenters
p3060
I3429
sVissues
p3061
I789
sVseemed
p3062
I2146
sVconcerned
p3063
I659
sVyoung
p3064
I644
sVsend
p3065
I379
sVlanguages
p3066
I2793
sVover-weight
p3067
I3493
sVhelps
p3068
I206
sVpopularity
p3069
I3599
sVofficials
p3070
I3030
sVdislike
p3071
I3430
sVocmputer
p3072
I2556
sVfriendly
p3073
I1333
sVsent
p3074
I1009
sVstatics
p3075
I3431
sVbreathing
p3076
I2795
sVpersuade
p3077
I1836
sVreaserching
p3078
I3550
sVcontinues
p3079
I1695
sVconditions
p3080
I2622
sVfacebook
p3081
I200
sVintouch
p3082
I1969
sVfreind
p3083
I1768
sVtelling
p3084
I1177
sVpracticing
p3085
I2560
sVdrinking
p3086
I3245
sVentire
p3087
I1302
sVmagic
p3088
I3432
sVexperiencing
p3089
I2329
sVbutton
p3090
I766
sVf
p3091
I2711
sVguidance
p3092
I3495
sVexcessive
p3093
I2270
sVtry
p3094
I486
sVassignments
p3095
I968
sVrace
p3096
I1618
sVfasinating
p3097
I3639
sVobesity
p3098
I409
sVchallenge
p3099
I2372
sVopion
p3100
I2718
sVsmaller
p3101
I2101
sVjump
p3102
I1569
sVvideo
p3103
I247
sVtraveling
p3104
I1235
sVpicked
p3105
I2185
sVconcludes
p3106
I3247
sVdownload
p3107
I1024
sVclick
p3108
I449
sVdepression
p3109
I1056
sVfont
p3110
I3981
sVplays
p3111
I1914
sVbusiness
p3112
I483
sVgiving
p3113
I722
sVendlessly
p3114
I3982
sVreaching
p3115
I3641
sVnetworks
p3116
I1027
sVaccess
p3117
I543
sVpaying
p3118
I928
sVwaiting
p3119
I874
sVprinting
p3120
I3338
sVcapital
p3121
I2797
sVacually
p3122
I3046
sV;
p3123
I377
sVcoordinates
p3124
I3910
sVexercise
p3125
I155
sVbody
p3126
I471
sVled
p3127
I2558
sVchose
p3128
I1731
sVdegree
p3129
I1746
sVleg
p3130
I2927
sVpushing
p3131
I2490
sVcommercial
p3132
I2626
sVresearchers
p3133
I3400
sVgrowing
p3134
I852
sVexplore
p3135
I811
sVobjects
p3136
I2433
sVlet
p3137
I241
sVothers
p3138
I242
sVconsideration
p3139
I1213
sVsafer
p3140
I2074
sVinvented
p3141
I893
sVkidnapped
p3142
I1392
sVextreme
p3143
I3140
sVgreat
p3144
I124
sVdidn
p3145
I2527
sVreceive
p3146
I1483
sVinvolved
p3147
I1278
sVhastle
p3148
I2697
sVleaving
p3149
I875
sVsurvey
p3150
I965
sVsituations
p3151
I1462
sVopinion
p3152
I269
sVresidents
p3153
I2005
sVproof
p3154
I3801
sVmakes
p3155
I372
sVexcercise
p3156
I1541
sVinvolves
p3157
I1883
sVthats
p3158
I343
sVtunnel
p3159
I3144
sVnamed
p3160
I1588
sVapple
p3161
I2799
sVdanger
p3162
I922
sVpitch
p3163
I3627
sVwin
p3164
I1915
sVcharge
p3165
I2753
sVmanage
p3166
I1658
sVprivate
p3167
I1826
sVwih
p3168
I3044
sVaddressed
p3169
I3608
sVweaker
p3170
I2930
sVdecrease
p3171
I1515
sVnames
p3172
I1894
sVmotor
p3173
I2800
sVbuiness
p3174
I3719
sVapply
p3175
I3248
sVtools
p3176
I919
sVexcersize
p3177
I1090
sVdosent
p3178
I3045
sVstanding
p3179
I2330
sVuse
p3180
I50
sVfrom
p3181
I63
sVstream
p3182
I2882
sV&
p3183
I324
sVillegal
p3184
I1486
sVnext
p3185
I275
sVwebsit
p3186
I3142
sVfew
p3187
I407
sVdoubt
p3188
I935
sVface-to-face
p3189
I2331
sVthemselves
p3190
I627
sVhiding
p3191
I3464
sVdreams
p3192
I3081
sVchip
p3193
I3526
sVsort
p3194
I1270
sVpencil
p3195
I1769
sVsons
p3196
I3954
sVexsample
p3197
I3803
sVupcoming
p3198
I2224
sVstarted
p3199
I640
sVbecomes
p3200
I1109
sVabout
p3201
I37
sVtrain
p3202
I3143
sVbenifical
p3203
I2491
sVbaby
p3204
I1171
sVactual
p3205
I2040
sVstarter
p3206
I3609
sVwomen
p3207
I2264
sVaccount
p3208
I870
sVballs
p3209
I2559
sVanimals
p3210
I835
sVsoceity
p3211
I2402
sVthis
p3212
I35
sVthir
p3213
I2561
sVride
p3214
I995
sVclients
p3215
I2147
sVbenefitting
p3216
I2332
sVwaisting
p3217
I2041
sV@state
p3218
I2492
sVanywhere
p3219
I738
sVobvious
p3220
I2712
sVthin
p3221
I3438
sVuniverse
p3222
I2820
sVmeet
p3223
I335
sVdidnt
p3224
I976
sVavoided
p3225
I2995
sVcontrol
p3226
I1043
sVdistractions
p3227
I1747
sVlinks
p3228
I1570
sVsnacks
p3229
I3145
sVprocess
p3230
I1429
sVlock
p3231
I1770
sVtax
p3232
I1970
sVpurposes
p3233
I1034
sVjunkfood
p3234
I3610
sVpieces
p3235
I1771
sVhigh
p3236
I581
sVprofessor
p3237
I2283
sVtag
p3238
I2266
sVpulling
p3239
I2186
sVsomething
p3240
I142
sVbones
p3241
I2434
sVvoice
p3242
I1554
sVrape
p3243
I3250
sVweaken
p3244
I3439
sVcrucial
p3245
I2190
sVinforming
p3246
I3943
sVeducational
p3247
I529
sVmemorize
p3248
I3251
sVsit
p3249
I346
sVdestroying
p3250
I1546
sVsix
p3251
I1601
sVfortunate
p3252
I3253
sVquizzes
p3253
I2356
sVforest
p3254
I1827
sVanimal
p3255
I2148
sVinstead
p3256
I173
sVintelligent
p3257
I2006
sVbanned
p3258
I2910
sVgreatly
p3259
I732
sVprofile
p3260
I1944
sVbuildings
p3261
I3146
sVscammed
p3262
I2931
sVattend
p3263
I2801
sVstop
p3264
I305
sVcordanation
p3265
I2042
sVbenifit
p3266
I515
sVabuse
p3267
I1089
sVevry
p3268
I3441
sVspelling
p3269
I1145
sVefficiently
p3270
I2007
sVrealized
p3271
I1172
sVot
p3272
I2766
sVlight
p3273
I889
sVbing
p3274
I2436
sVlines
p3275
I1828
sVrobot
p3276
I2333
sVhonestly
p3277
I1602
sVallow
p3278
I236
sVpyramids
p3279
I3442
sVaddiction
p3280
I585
sVswimming
p3281
I2627
sVfastest
p3282
I1852
sVavalible
p3283
I3047
sVholds
p3284
I2435
sVbeauties
p3285
I3255
sVcoordinated
p3286
I2458
sVconcideration
p3287
I2628
sVareas
p3288
I1661
sVmove
p3289
I570
sVincluding
p3290
I969
sVlooks
p3291
I1273
sVposotive
p3292
I1547
sVmentioned
p3293
I1223
sVbunch
p3294
I1352
sVperfect
p3295
I1010
sVhelicopters
p3296
I3614
sValway
p3297
I1844
sVchosen
p3298
I2932
sVemails
p3299
I829
sVwould'nt
p3300
I3147
sVwilling
p3301
I2075
sVchoose
p3302
I628
sV@time
p3303
I809
sVinstruments
p3304
I2933
sVamazed
p3305
I2687
sVintrested
p3306
I2968
sV<
p3307
I1945
sVdad
p3308
I613
sVexpirience
p3309
I3805
sVruined
p3310
I1738
sVcrash
p3311
I2494
sVgreater
p3312
I1460
sVsurrounds
p3313
I3615
sVpractice
p3314
I844
sVruns
p3315
I2162
sVship
p3316
I3542
sVmention
p3317
I1409
sVcutting
p3318
I2944
sVbothering
p3319
I3443
sVhands
p3320
I676
sVfront
p3321
I568
sVday
p3322
I101
sVstrive
p3323
I3806
sVarticles
p3324
I1156
sVomputers
p3325
I3748
sVedit
p3326
I2495
sVuniversity
p3327
I2629
sVscientest
p3328
I2935
sVslide
p3329
I3049
sVdoesnt
p3330
I1353
sVtruth
p3331
I1772
sVbreeze
p3332
I2030
sVrising
p3333
I2752
sVbills
p3334
I594
sVeaser
p3335
I3257
sVexperienced
p3336
I3595
sVglasses
p3337
I990
sVfare
p3338
I3611
sVrelize
p3339
I2425
sVdoing
p3340
I163
sVglobe
p3341
I1335
sVproduct
p3342
I2024
sVrelated
p3343
I1679
sVsociety
p3344
I107
sVjunkie
p3345
I3808
sVbooks
p3346
I317
sVour
p3347
I89
sVsexual
p3348
I2714
sVspecial
p3349
I1015
sVout
p3350
I62
sVyout
p3351
I3551
sV'
p3352
I375
sVentertainment
p3353
I450
sVsomethings
p3354
I2874
sVoccupied
p3355
I3102
sVstuf
p3356
I3470
sVrap
p3357
I3869
sVwich
p3358
I1445
sVelectronics
p3359
I954
sVcause
p3360
I286
sVconvinient
p3361
I3051
sVmath
p3362
I700
sVask.com
p3363
I3076
sVshut
p3364
I1326
sVdictionary
p3365
I1194
sVinteractions
p3366
I1548
sVipod
p3367
I1529
sVnephew
p3368
I3494
sVcompletely
p3369
I1393
sVect
p3370
I1446
sVsurely
p3371
I1378
sVvacations
p3372
I1314
sVsupose
p3373
I3473
sVscary
p3374
I1619
sVfrend
p3375
I2936
sVinteraction
p3376
I739
sVyard
p3377
I3149
sVprepare
p3378
I1707
sVsafty
p3379
I2043
sVcrashed
p3380
I1957
sVconcerns
p3381
I2715
sVsteal
p3382
I2437
sVcould
p3383
I66
sVflorida
p3384
I2187
sVtimes
p3385
I432
sVconversation
p3386
I743
sVchicken
p3387
I2805
sVproduce
p3388
I2992
sVmeals
p3389
I3428
sVexplored
p3390
I3340
sVdeprives
p3391
I3811
sVmankind
p3392
I2062
sVexam
p3393
I3259
sVthere
p3394
I52
sVexersicing
p3395
I2724
sVpowerful
p3396
I1800
sVowned
p3397
I3444
sVstraining
p3398
I3445
sVimproving
p3399
I1447
sVowner
p3400
I2160
sVquality
p3401
I1276
sVowning
p3402
I2077
sVreread
p3403
I3499
sVhas
p3404
I103
sVancient
p3405
I2078
sVsadly
p3406
I2438
sVfair
p3407
I2510
sVprivacy
p3408
I1952
sVordering
p3409
I2335
sVguys
p3410
I1813
sVmyspace
p3411
I351
sVsystem
p3412
I1011
sVrelations
p3413
I2630
sVeighth
p3414
I3908
sVpriority
p3415
I2804
sVtheir
p3416
I48
sVattack
p3417
I1916
sVcertin
p3418
I3052
sVmessing
p3419
I2227
sVfinal
p3420
I552
sVprone
p3421
I2631
sVinterests
p3422
I2562
sVenforcement
p3423
I3446
sVstars
p3424
I2937
sVactivitys
p3425
I1448
sVpunish
p3426
I3053
sVcompleted
p3427
I3150
sVnobody
p3428
I1057
sVexpressing
p3429
I3746
sVenvironmental
p3430
I3815
sVvideogames
p3431
I3260
sVoverwhelming
p3432
I3054
sVherself
p3433
I3055
sVupdating
p3434
I3619
sVwaist
p3435
I1578
sVloved
p3436
I826
sVben
p3437
I3056
sVboring
p3438
I1092
sVbother
p3439
I1773
sVbed
p3440
I1917
sVlimiting
p3441
I1955
sVclaim
p3442
I3094
sVpatients
p3443
I3180
sVdefense
p3444
I3236
sVloves
p3445
I1516
sVvisited
p3446
I2439
sVnegatively
p3447
I1430
sVproviding
p3448
I3622
sVbeuty
p3449
I3816
sVbet
p3450
I1336
sVaquire
p3451
I3871
sVbeter
p3452
I3261
sVfalse
p3453
I1279
sVagian
p3454
I3466
sVp.s
p3455
I3623
sVteenagers
p3456
I573
sVcomfortable
p3457
I2228
sVhave
p3458
I22
sVneed
p3459
I84
sVclearly
p3460
I796
sVviewed
p3461
I3447
sVunderstant
p3462
I3789
sVdocuments
p3463
I1214
sVstating
p3464
I3991
sVmin
p3465
I1461
sVrecap
p3466
I2814
sVstudying
p3467
I936
sVprobly
p3468
I1885
sVneater
p3469
I1946
sVable
p3470
I186
sVparks
p3471
I2229
sVinstance
p3472
I945
sVrelatives
p3473
I625
sVcordination
p3474
I547
sVwhich
p3475
I211
sV@organization
p3476
I95
sVencyclopedia
p3477
I1798
sVtechniques
p3478
I2016
sVmedals
p3479
I3624
sVaccuracy
p3480
I3511
sVworldwide
p3481
I1886
sVthet
p3482
I2688
sVunless
p3483
I1230
sVbuissness
p3484
I2008
sVwho
p3485
I109
sVnatrual
p3486
I3264
sVharmful
p3487
I812
sVconnected
p3488
I798
sVdevice
p3489
I691
sVhighschool
p3490
I1855
sVwhy
p3491
I90
sVsocializing
p3492
I1137
sVcellphone
p3493
I1337
sVconsequences
p3494
I1593
sVeachother
p3495
I1801
sVvisiting
p3496
I1856
sVstronger
p3497
I1280
sVdisease
p3498
I1519
sVface
p3499
I357
sVlooked
p3500
I910
sVgraphs
p3501
I1829
sVlabtop
p3502
I1629
sVse
p3503
I2525
sVpictures
p3504
I312
sVskinny
p3505
I3817
sVnormally
p3506
I1303
sVfact
p3507
I390
sVchances
p3508
I1681
sVtext
p3509
I740
sVagreed
p3510
I2247
sVsupported
p3511
I3521
sVoverwhelmed
p3512
I3401
sVanyway
p3513
I1637
sVunbelievable
p3514
I3907
sVbring
p3515
I525
sVreference
p3516
I3768
sVplanning
p3517
I1530
sVbedroom
p3518
I1887
sVhealthcare
p3519
I3612
sVsoldiers
p3520
I1394
sVfear
p3521
I2454
sVagrees
p3522
I1004
sVdecade
p3523
I3450
sVstaff
p3524
I2716
sVpromote
p3525
I2252
sVbased
p3526
I1638
sVknowledge
p3527
I404
sVexcerise
p3528
I2080
sV(
p3529
I451
sVcontrols
p3530
I3818
sVshould
p3531
I112
sVbuttons
p3532
I2149
sVcontroll
p3533
I2717
sVunable
p3534
I2585
sVriding
p3535
I2336
sVbecasue
p3536
I2365
sVlocal
p3537
I207
sVhope
p3538
I306
sVmeant
p3539
I1697
sVpeolple
p3540
I2633
sVhandle
p3541
I2150
sVlistened
p3542
I3451
sVmeans
p3543
I535
sVfellow
p3544
I1935
sVfamiliar
p3545
I2565
sVexircise
p3546
I2808
sVoverall
p3547
I901
sVlucky
p3548
I1702
sVbear
p3549
I3819
sVacces
p3550
I2566
sVones
p3551
I498
sVwords
p3552
I549
sVwerent
p3553
I2634
sVcompute
p3554
I2339
sVchips
p3555
I2102
sVroutine
p3556
I3154
sVendless
p3557
I1096
sVdonate
p3558
I3783
sVcourse
p3559
I802
sVshy
p3560
I2249
sVexercizing
p3561
I3452
sVtaxes
p3562
I1138
sVcalling
p3563
I967
sVinfluenced
p3564
I2475
sVstuff
p3565
I333
sV@location
p3566
I99
sVshe
p3567
I193
sVwish
p3568
I1410
sVtunes
p3569
I3626
sVgrab
p3570
I1802
sVfixed
p3571
I1589
sVconduct
p3572
I3167
sVgenerations
p3573
I1857
sVview
p3574
I890
sVknowing
p3575
I858
sVrequirement
p3576
I2809
sVfreinds
p3577
I1315
sVnational
p3578
I2232
sVcruise
p3579
I3613
sVhumans
p3580
I648
sVwe
p3581
I51
sVdependant
p3582
I3448
sVdifrent
p3583
I2939
sVsimplier
p3584
I3711
sVcomputes
p3585
I2381
sVcomputer
p3586
I16
sVenhanced
p3587
I3152
sVskateboarding
p3588
I3453
sVbecaus
p3589
I3171
sVpacked
p3590
I2940
sVcloser
p3591
I830
sVinterview
p3592
I2156
sVinteracting
p3593
I359
sVchannels
p3594
I2835
sVtend
p3595
I970
sVowns
p3596
I3635
sVhe/she
p3597
I1842
sVstate
p3598
I487
sVclosed
p3599
I1603
sVhorrible
p3600
I946
sVstories
p3601
I1369
sVneither
p3602
I2636
sVexerise
p3603
I3804
sVemail
p3604
I292
sVbought
p3605
I1098
sVends
p3606
I2941
sVability
p3607
I296
sVopening
p3608
I3266
sVimportance
p3609
I2044
sVcompters
p3610
I2719
sVdeliver
p3611
I2720
sVvitamin
p3612
I2662
sVkicking
p3613
I3630
sVjob
p3614
I310
sVkey
p3615
I996
sVjog
p3616
I1858
sVgroup
p3617
I1591
sVprecious
p3618
I2045
sVobesety
p3619
I3799
sVphysicly
p3620
I2721
sVsuccesful
p3621
I3205
sVstaring
p3622
I881
sVharrassment
p3623
I2573
sVinstant
p3624
I387
sVlimits
p3625
I1338
sVcareer
p3626
I1716
sVinformational
p3627
I2153
sVtaking
p3628
I378
sVescape
p3629
I2747
sVminds
p3630
I958
sVtrips
p3631
I1542
sVetc
p3632
I502
sVadmit
p3633
I1639
sVatleast
p3634
I2095
sVstudys
p3635
I2637
sVpassing
p3636
I2723
sVotherwise
p3637
I1559
sVcomment
p3638
I1830
sVdetailed
p3639
I1992
sVco
p3640
I3455
sVconclude
p3641
I1215
sVwall
p3642
I2267
sVca
p3643
I251
sVdefenetly
p3644
I2885
sVenvironments
p3645
I3267
sVwalk
p3646
I494
sVcolledge
p3647
I2440
sVadding
p3648
I2592
sVlaugh
p3649
I2233
sVnews
p3650
I283
sVrespect
p3651
I1531
sVpoeple
p3652
I1408
sVquit
p3653
I2638
sVdeffinetly
p3654
I3631
sVacts
p3655
I3909
sVaddition
p3656
I607
sVquiz
p3657
I1918
sVimmense
p3658
I3632
sVcreations
p3659
I2526
sVslowly
p3660
I1449
sVtreat
p3661
I2639
sVhottest
p3662
I3456
sVwaste
p3663
I418
sVtrend
p3664
I3192
sV>
p3665
I2009
sVcontribute
p3666
I1698
sVcontrolled
p3667
I3059
sVam
p3668
I249
sVclimate
p3669
I3504
sVal
p3670
I2134
sVfinished
p3671
I1304
sVice
p3672
I3188
sVcramps
p3673
I2653
sVtecnology
p3674
I2369
sVimproved
p3675
I1128
sVexersizing
p3676
I1604
sVan
p3677
I91
sVdespite
p3678
I3870
sVpresent
p3679
I1195
sVhomes
p3680
I1119
sVmulti
p3681
I1662
sVcriminal
p3682
I3148
sValows
p3683
I3156
sVunlike
p3684
I1683
sVtypeing
p3685
I1640
sVoveruse
p3686
I2811
sVplain
p3687
I1948
sVharder
p3688
I1016
sVvalue
p3689
I3824
sVchoices
p3690
I1859
sVwill
p3691
I65
sVsuport
p3692
I3457
sVaccesible
p3693
I3458
sVfault
p3694
I1592
sVwild
p3695
I2268
sVwile
p3696
I2812
sVhandwriting
p3697
I955
sVinstantly
p3698
I1007
sVdiscoveries
p3699
I2151
sVat
p3700
I67
sVsnack
p3701
I2519
sVlayer
p3702
I2813
sVhand-eye
p3703
I172
sVplanets
p3704
I2415
sVmanually
p3705
I3157
sValmost
p3706
I319
sVthus
p3707
I1163
sVsite
p3708
I681
sVhelped
p3709
I537
sVgirlfriend
p3710
I3116
sVdrasticly
p3711
I3827
sVwatched
p3712
I2535
sVcoumputors
p3713
I2942
sVsits
p3714
I2568
sVbegining
p3715
I3829
sVshooting
p3716
I2235
sVcomputeres
p3717
I3459
sV)
p3718
I398
sVbegan
p3719
I1919
sVradiation
p3720
I2269
sVmember
p3721
I813
sVmatches
p3722
I3342
sVparts
p3723
I929
sVconversations
p3724
I1522
sVparty
p3725
I1339
sVgets
p3726
I600
sVgrasp
p3727
I3946
sVdifficult
p3728
I814
sVinjured
p3729
I3158
sVcellphones
p3730
I1370
sVball
p3731
I803
sVscams
p3732
I3407
sVemotionally
p3733
I3461
sVforgotten
p3734
I2373
sVdisagree
p3735
I620
sVeffect
p3736
I120
sVbullying
p3737
I827
sVpresentations
p3738
I1846
sVstudent
p3739
I467
sVinfinite
p3740
I2569
sVfrequently
p3741
I1803
sVtoll
p3742
I2341
sVexpand
p3743
I1281
sVdiabetes
p3744
I1712
sVoff
p3745
I202
sVcenter
p3746
I3159
sVfmaily
p3747
I3893
sVrecords
p3748
I2299
sVi
p3749
I19
sVincredible
p3750
I2499
sVwell
p3751
I154
sVfighting
p3752
I1684
sVthought
p3753
I563
sVenglish
p3754
I1861
sVfirstly
p3755
I1164
sVposition
p3756
I1831
sVmuscle
p3757
I2725
sVdrawing
p3758
I2570
sVlatest
p3759
I1002
sVupgraded
p3760
I3786
sVstores
p3761
I854
sVless
p3762
I168
sVmoments
p3763
I2946
sVaccurate
p3764
I1396
sVobtain
p3765
I2271
sVdose
p3766
I1503
sVsources
p3767
I1033
sVmistakes
p3768
I1641
sVdistant
p3769
I838
sVrooms
p3770
I785
sVprotecting
p3771
I3582
sVskill
p3772
I619
sVglue
p3773
I2947
sVcoordination
p3774
I151
sVwether
p3775
I1258
sVweb
p3776
I358
sVexcersing
p3777
I1804
sVads
p3778
I2081
sVopinon
p3779
I3637
sVsupply
p3780
I2816
sVlogged
p3781
I2046
sVlake
p3782
I3160
sVcapabilities
p3783
I3272
sVhandy
p3784
I900
sVreasons
p3785
I187
sVadd
p3786
I907
sVother
p3787
I85
sVcitizen
p3788
I2441
sVusage
p3789
I699
sVearthquakes
p3790
I2817
sVsmart
p3791
I977
sVboom
p3792
I2818
sVtests
p3793
I1305
sVincreased
p3794
I1139
sVworlds
p3795
I1678
sVchecking
p3796
I1035
sVincreases
p3797
I1776
sVwright
p3798
I3918
sVfive
p3799
I849
sVwhatever
p3800
I883
sVdesk
p3801
I1327
sVpress
p3802
I1606
sVimmediately
p3803
I3061
sVpassword
p3804
I3462
sVexellent
p3805
I2337
sVdevises
p3806
I3062
sVprobally
p3807
I2181
sVloss
p3808
I1340
sVflys
p3809
I3846
sVlazyness
p3810
I2442
sVnecessary
p3811
I947
sVlike
p3812
I56
sVlost
p3813
I457
sVsizes
p3814
I3638
sVchairs
p3815
I2010
sVadmitted
p3816
I3835
sVheed
p3817
I2726
sVlose
p3818
I424
sVbecome
p3819
I234
sVworks
p3820
I978
sVpage
p3821
I682
sVwonders
p3822
I1607
sVpoor
p3823
I1620
sVbecause
p3824
I36
sVsociaty
p3825
I2819
sVchatrooms
p3826
I1862
sVtwitter
p3827
I626
sVsearching
p3828
I815
sVlibrary
p3829
I348
sVhair
p3830
I3837
sVgrowth
p3831
I3273
sVdebating
p3832
I3197
sVchoosing
p3833
I2950
sVproper
p3834
I1663
sVhome
p3835
I184
sVcancled
p3836
I3463
sVstuffy
p3837
I2623
sVhappens
p3838
I717
sVwoud
p3839
I2082
sVthroughout
p3840
I1256
sVvocabulary
p3841
I2536
sVlead
p3842
I545
sVliterally
p3843
I2152
sVavoid
p3844
I1889
sVhurricane
p3845
I3839
sVdisk
p3846
I3952
sVe-mail
p3847
I413
sVdoes
p3848
I220
sVhappend
p3849
I1501
sVweighs
p3850
I3968
sV?
p3851
I69
sVlocate
p3852
I2497
sVstalkers
p3853
I3652
sVinaccurate
p3854
I3640
sVmouth
p3855
I2840
sVschedule
p3856
I1487
sVpressure
p3857
I2571
sVrecieving
p3858
I2727
sValthough
p3859
I564
sVcommputer
p3860
I2272
sVa.
p3861
I2310
sVsimpler
p3862
I1733
sVgained
p3863
I1431
sVsister
p3864
I920
sVlifestyle
p3865
I1036
sVputs
p3866
I1806
sVgetting
p3867
I182
sVfreedom
p3868
I2265
sVdeffinition
p3869
I3274
sVheaded
p3870
I3583
sVsweat
p3871
I3275
sVpersuaded
p3872
I2047
sVpowerpoint
p3873
I1664
sVbeign
p3874
I3642
sVsoftware
p3875
I1242
sVequally
p3876
I3643
sVown
p3877
I363
sVletters
p3878
I774
sVchildrens
p3879
I1833
sVkeeps
p3880
I725
sVpreviously
p3881
I2383
sVoportunity
p3882
I3644
sVbillions
p3883
I1949
sVincluded
p3884
I3219
sVweather
p3885
I534
sVtiny
p3886
I3681
sVartists
p3887
I2640
sVcyberbullied
p3888
I2823
sVcouldnt
p3889
I2641
sV.
p3890
I3
sVpointless
p3891
I2384
sVmere
p3892
I2572
sVgoogle.com
p3893
I3592
sVnetworking
p3894
I577
sVadolescent
p3895
I3841
sVrushed
p3896
I3842
sVmuseum
p3897
I3646
sVsociatey
p3898
I3843
sVapps
p3899
I2498
sVsecret
p3900
I3788
sVspots
p3901
I1777
sVnoticed
p3902
I1572
sVefficent
p3903
I2083
sVsyber
p3904
I3752
sVvaction
p3905
I2443
sVbiggest
p3906
I1120
sVgoin
p3907
I2729
sVnaturally
p3908
I3465
sVfunction
p3909
I1328
sVtricky
p3910
I3375
sVbuy
p3911
I353
sVbrowsing
p3912
I2663
sVchatting
p3913
I472
sVbus
p3914
I3844
sVbrand
p3915
I3845
sVbut
p3916
I44
sVreminds
p3917
I2234
sVhi
p3918
I2642
sVgain
p3919
I556
sVbeat
p3920
I2231
sVediting
p3921
I2728
sVeat
p3922
I516
sVhe
p3923
I171
sVcount
p3924
I1549
sVmade
p3925
I340
sVwise
p3926
I1834
sVplaces
p3927
I139
sVwhether
p3928
I488
sVdangerous
p3929
I410
sVcells
p3930
I1504
sVpolitics
p3931
I3948
sVdistract
p3932
I3277
sVrecord
p3933
I1863
sVcruel
p3934
I2643
sVconvince
p3935
I2340
sVlimit
p3936
I721
sVcake
p3937
I2821
sVproblem
p3938
I262
sVpiece
p3939
I902
sVminutes
p3940
I411
sVodds
p3941
I2772
sVmechanics
p3942
I3647
sVhealthiest
p3943
I3942
sVuniversal
p3944
I3648
sVfingertips
p3945
I1651
sVconsumed
p3946
I3425
sVbeats
p3947
I3064
sVtutors
p3948
I3004
sVperiods
p3949
I3161
sVwebpages
p3950
I2822
sVlikly
p3951
I1750
sVeducation
p3952
I360
sVipods
p3953
I3065
sVgirl
p3954
I903
sVeffected
p3955
I1890
sVspell
p3956
I1229
sVcompared
p3957
I1488
sV'll
p3958
I384
sVvariety
p3959
I1329
sVdeadly
p3960
I2011
sVpercent
p3961
I1196
sVdetail
p3962
I1835
sVvirtual
p3963
I1058
sVlately
p3964
I1699
sVeducationally
p3965
I2574
sVcyberspace
p3966
I3713
sVbook
p3967
I265
sVgossip
p3968
I3784
sVdetails
p3969
I1216
sVsick
p3970
I959
sVmass
p3971
I3376
sVclicks
p3972
I2500
sVcontacting
p3973
I2274
sVconclusion
p3974
I261
sVjunk
p3975
I1475
sVkinds
p3976
I911
sVrespected
p3977
I3544
sVwaves
p3978
I3386
sVworker
p3979
I2951
sVclass
p3980
I474
sVultimately
p3981
I3915
sVstay
p3982
I185
sVchance
p3983
I550
sVadditionally
p3984
I2644
sVenternet
p3985
I1717
sVfriends
p3986
I46
sVopened
p3987
I1786
sVsearches
p3988
I2952
sVbreaks
p3989
I3884
sVecofriendly
p3990
I3000
sVblogs
p3991
I2645
sVfactors
p3992
I2759
sVusefull
p3993
I1432
sVgardens
p3994
I3467
sVcraft
p3995
I3877
sVsearched
p3996
I2312
sVunderstand
p3997
I392
sVyell
p3998
I3162
sVaccidents
p3999
I3163
sVconfess
p4000
I3164
s.